BL51 BANKED LINKER/LOCATER V6.22                                                        05/30/2019  12:42:35  PAGE 1


BL51 BANKED LINKER/LOCATER V6.22, INVOKED BY:
C:\KEIL\C51\BIN\BL51.EXE .\startup.obj, .\FlashChk.obj, .\INTERRUPT_OFFSET.obj, .\OTA_IAP.obj, ..\Library\A8107_BLE_LIB.
>> LIB, ..\OTA\OTA.LIB, ..\IAP\IAP.LIB, ..\Proprietary\Proprietary.LIB, .\servicegen.obj, .\security.obj, .\application_
>> check.obj, .\interrupt_24G.obj, .\main_24G.obj, .\mcufunction.obj, .\IEEE.obj, .\OTA_Data.obj TO Proprietary RAMSIZE 
>> (256) NOOVERLAY CODE (0X0300-0XFFFF, ?PR?*OTA (0X400), ?C?LIB_CODE, ?PR?*IAP (0X2000), ?PR?_ERASE_START?IAP (0X5000),
>>  ?PR?_WRITEFLASH_START?IAP, ?PR?*INTERRUPT_24G, ?PR?*MAIN_24G) XDATA (0X0000-0X1FFF)


MEMORY MODEL: LARGE WITH FLOATING POINT ARITHMETIC


INPUT MODULES INCLUDED:
  .\startup.obj (?C_STARTUP)
  .\FlashChk.obj (FLASH_CHECK)
  .\INTERRUPT_OFFSET.obj (INTERRUPT_OFFSET)
  .\OTA_IAP.obj (OTA_IAP)
  .\servicegen.obj (SERVICEGEN)
  .\security.obj (SECURITY)
  .\application_check.obj (APPLICATION_CHECK)
  .\interrupt_24G.obj (INTERRUPT_24G)
  .\main_24G.obj (MAIN_24G)
  .\mcufunction.obj (MCUFUNCTION)
  .\IEEE.obj (IEEEE_ADDRESS)
  .\OTA_Data.obj (OTA_DATA)
  ..\Library\A8107_BLE_LIB.LIB (HOST)
  ..\Library\A8107_BLE_LIB.LIB (LINKLAYER)
  ..\Library\A8107_BLE_LIB.LIB (RFA8107)
  ..\OTA\OTA.LIB (OTA)
  ..\IAP\IAP.LIB (IAP)
  ..\Proprietary\Proprietary.LIB (PROPRIETARY)
  C:\KEIL\C51\LIB\C51FPL.LIB (?C?FPADD)
  C:\KEIL\C51\LIB\C51FPL.LIB (?C?FPMUL)
  C:\KEIL\C51\LIB\C51FPL.LIB (?C?FCAST)
  C:\KEIL\C51\LIB\C51FPL.LIB (?C?CASTF)
  C:\KEIL\C51\LIB\C51FPL.LIB (?C?FPGETOPN)
  C:\KEIL\C51\LIB\C51L.LIB (?C_INIT)
  C:\KEIL\C51\LIB\C51L.LIB (?C?COPY)
  C:\KEIL\C51\LIB\C51L.LIB (?C?CLDPTR)
  C:\KEIL\C51\LIB\C51L.LIB (?C?CLDOPTR)
  C:\KEIL\C51\LIB\C51L.LIB (?C?CSTPTR)
  C:\KEIL\C51\LIB\C51L.LIB (?C?CSTOPTR)
  C:\KEIL\C51\LIB\C51L.LIB (?C?IMUL)
  C:\KEIL\C51\LIB\C51L.LIB (?C?UIDIV)
  C:\KEIL\C51\LIB\C51L.LIB (?C?IILDX)
  C:\KEIL\C51\LIB\C51L.LIB (?C?ILDOPTR)
  C:\KEIL\C51\LIB\C51L.LIB (?C?LADD)
  C:\KEIL\C51\LIB\C51L.LIB (?C?LSUB)
  C:\KEIL\C51\LIB\C51L.LIB (?C?LMUL)
  C:\KEIL\C51\LIB\C51L.LIB (?C?ULDIV)
  C:\KEIL\C51\LIB\C51L.LIB (?C?LOR)
  C:\KEIL\C51\LIB\C51L.LIB (?C?LNEG)
  C:\KEIL\C51\LIB\C51L.LIB (?C?SLCMP)
  C:\KEIL\C51\LIB\C51L.LIB (?C?ULCMP)
  C:\KEIL\C51\LIB\C51L.LIB (?C?ULSHR)
  C:\KEIL\C51\LIB\C51L.LIB (?C?SLSHR)
  C:\KEIL\C51\LIB\C51L.LIB (?C?LSHL)
  C:\KEIL\C51\LIB\C51L.LIB (?C?LLDXDATA)
  C:\KEIL\C51\LIB\C51L.LIB (?C?LLDCODE)
BL51 BANKED LINKER/LOCATER V6.22                                                      05/30/2019  12:42:35  PAGE 2


  C:\KEIL\C51\LIB\C51L.LIB (?C?LLDXDATA0)
  C:\KEIL\C51\LIB\C51L.LIB (?C?LSTXDATA)
  C:\KEIL\C51\LIB\C51L.LIB (?C?LSTKXDATA)
  C:\KEIL\C51\LIB\C51L.LIB (?C?OFFXADD)
  C:\KEIL\C51\LIB\C51L.LIB (?C?PLDXDATA)
  C:\KEIL\C51\LIB\C51L.LIB (?C?PSTXDATA)
  C:\KEIL\C51\LIB\C51L.LIB (?C?PLDCODE)
  C:\KEIL\C51\LIB\C51L.LIB (?C?PLDPTR)
  C:\KEIL\C51\LIB\C51L.LIB (?C?PSTPTR)
  C:\KEIL\C51\LIB\C51L.LIB (?C?CCASE)
  C:\KEIL\C51\LIB\C51L.LIB (?C?LIMUL)
  C:\KEIL\C51\LIB\C51L.LIB (?C?MEMCMP)
  C:\KEIL\C51\LIB\C51L.LIB (?C?MEMSET)
  C:\KEIL\C51\LIB\C51L.LIB (?C?PLDIDATA)
  C:\KEIL\C51\LIB\C51L.LIB (?C?PSTIDATA)
  C:\KEIL\C51\LIB\C51L.LIB (?C?PLDPDATA)
  C:\KEIL\C51\LIB\C51L.LIB (?C?PSTPDATA)


LINK MAP OF MODULE:  Proprietary (?C_STARTUP)


            TYPE    BASE      LENGTH    RELOCATION   SEGMENT NAME
            -----------------------------------------------------

            * * * * * * *   D A T A   M E M O R Y   * * * * * * *
            REG     0000H     0008H     ABSOLUTE     "REG BANK 0"
            DATA    0008H     0003H     UNIT         ?DT?_WRITEFLASH_START?IAP
            DATA    000BH     0002H     UNIT         ?DT?_IAP_READDATA?IAP
            DATA    000DH     0001H     UNIT         ?DT?PRCSS_OPCODE_ATT_WRITE_REQUEST?HOST
            DATA    000EH     0001H     UNIT         ?DT?PRCSS_OPCODE_ATT_EXECUTE_WRITE_REQUEST?HOST
            DATA    000FH     0001H     UNIT         ?DT?PRCSS_OPCODE_ATT_WRITE_COMMAND?HOST
            DATA    0010H     0001H     UNIT         ?DT?PRCSS_BLE_CODE_SMP_IDENTITY_ADDRESS_INFORMATION?HOST
            DATA    0011H     0001H     UNIT         ?DT?_CMD_FLASHBOND?HOST
            DATA    0012H     0001H     UNIT         ?DT?_ERSDATA_FLASHBOND?HOST
            DATA    0013H     0001H     UNIT         ?DT?_ERSINFO_FLASHBOND?HOST
            DATA    0014H     0001H     UNIT         ?DT?_MARK_PID_INFO_FLASHBOND?HOST
            DATA    0015H     0001H     UNIT         ?DT?_MARK_PID_DATA_FLASHBOND?HOST
            DATA    0016H     0001H     UNIT         ?DT?FIL_INFO_FLASHBONDWEXST_PBID?HOST
            DATA    0017H     0001H     UNIT         ?DT?OTA_KEEPBONDING?OTA
            DATA    0018H     0001H     UNIT         ?DT?ERASECKCODE?OTA
            DATA    0019H     0001H     UNIT         ?DT?ERASEAREA?OTA
            DATA    001AH     0001H     UNIT         ?DT?_ENTRYDATA?OTA
            DATA    001BH     0001H     UNIT         ?DT?_ERASE_START?IAP
            DATA    001CH     0001H     UNIT         ?DT?_IAP_ERASE?IAP
            DATA    001DH     0001H     UNIT         ?DT?_IAP_WRITEDATA?IAP
            IDATA   001EH     0002H     UNIT         ?ID?INITMCU?MCUFUNCTION
            DATA    0020H     0001H     ABSOLUTE     
            BIT     0021H.0   0007H.3   UNIT         ?BI?LINKLAYER
            BIT     0028H.3   0000H.1   UNIT         ?BI?PRCSS_OPCODE_ATT_FIND_INFORMATION_REQUEST?HOST
            BIT     0028H.4   0000H.1   UNIT         ?BI?PRCSS_OPCODE_ATT_FIND_INFORMATION_RESPONSE?HOST
            BIT     0028H.5   0000H.1   UNIT         ?BI?PRCSS_OPCODE_ATT_READ_BY_TYPE_RESPONSE?HOST
            BIT     0028H.6   0000H.1   UNIT         ?BI?PRCSS_OPCODE_ATT_READ_BLOB_REQUEST?HOST
            BIT     0028H.7   0000H.1   UNIT         ?BI?PRCSS_OPCODE_ATT_HANDLE_VALUE_NOTIFICATION?HOST
            BIT     0029H.0   0000H.1   UNIT         ?BI?_BLE_SENDDATA?HOST
            BIT     0029H.1   0000H.1   UNIT         ?BI?ADVGO?LINKLAYER
            BIT     0029H.2   0000H.1   UNIT         ?BI?CONNECTESTABLISH?LINKLAYER
BL51 BANKED LINKER/LOCATER V6.22                                                      05/30/2019  12:42:35  PAGE 3


            BIT     0029H.3   0000H.1   UNIT         ?BI?MD_PROCEDURE?LINKLAYER
            BIT     0029H.4   0000H.1   UNIT         ?BI?A8107_RCSELECT?RFA8107
            BIT     0029H.5   0000H.1   UNIT         ?BI?OTA_PROCESS?OTA
                    0029H.6   0000H.2                *** GAP ***
            IDATA   002AH     0004H     UNIT         ?ID?_WRITEFLASH_START?IAP
            IDATA   002EH     0002H     UNIT         ?ID?_ERASE_START?IAP
            IDATA   0030H     0001H     UNIT         ?STACK

            * * * * * * *  X D A T A   M E M O R Y  * * * * * * *
            XDATA   0000H     006FH     ABSOLUTE     
            XDATA   006FH     0020H     ABSOLUTE     
            XDATA   008FH     0020H     ABSOLUTE     
            XDATA   00AFH     001EH     ABSOLUTE     
            XDATA   00CDH     0040H     ABSOLUTE     
            XDATA   010DH     0040H     ABSOLUTE     
            XDATA   014DH     0006H     ABSOLUTE     
            XDATA   0153H     0002H     ABSOLUTE     
            XDATA   0155H     0014H     ABSOLUTE     
            XDATA   0169H     0140H     ABSOLUTE     
            XDATA   02A9H     0020H     ABSOLUTE     
            XDATA   02C9H     0002H     ABSOLUTE     
            XDATA   02CBH     0002H     ABSOLUTE     
            XDATA   02CDH     0020H     ABSOLUTE     
            XDATA   02EDH     0008H     ABSOLUTE     
            XDATA   02F5H     0002H     ABSOLUTE     
            XDATA   02F7H     0008H     ABSOLUTE     
            XDATA   02FFH     0004H     ABSOLUTE     
            XDATA   0303H     0040H     ABSOLUTE     
            XDATA   0343H     0100H     ABSOLUTE     
            XDATA   0443H     0010H     ABSOLUTE     
            XDATA   0453H     0010H     ABSOLUTE     
            XDATA   0463H     0010H     ABSOLUTE     
            XDATA   0473H     0010H     ABSOLUTE     
            XDATA   0483H     0010H     ABSOLUTE     
            XDATA   0493H     0008H     ABSOLUTE     
            XDATA   049BH     0010H     ABSOLUTE     
            XDATA   04ABH     0010H     ABSOLUTE     
            XDATA   04BBH     0010H     ABSOLUTE     
            XDATA   04CBH     0010H     ABSOLUTE     
            XDATA   04DBH     0010H     ABSOLUTE     
            XDATA   04EBH     0020H     ABSOLUTE     
            XDATA   050BH     0020H     ABSOLUTE     
            XDATA   052BH     0008H     ABSOLUTE     
            XDATA   0533H     0010H     ABSOLUTE     
            XDATA   0543H     000AH     ABSOLUTE     
            XDATA   054DH     0001H     ABSOLUTE     
            XDATA   054EH     0001H     ABSOLUTE     
            XDATA   054FH     0001H     ABSOLUTE     
            XDATA   0550H     0001H     ABSOLUTE     
            XDATA   0551H     0001H     ABSOLUTE     
            XDATA   0552H     0001H     ABSOLUTE     
            XDATA   0553H     0001H     ABSOLUTE     
            XDATA   0554H     0001H     ABSOLUTE     
            XDATA   0555H     0001H     ABSOLUTE     
            XDATA   0556H     0001H     ABSOLUTE     
            XDATA   0557H     0001H     ABSOLUTE     
            XDATA   0558H     0001H     ABSOLUTE     
BL51 BANKED LINKER/LOCATER V6.22                                                      05/30/2019  12:42:35  PAGE 4


            XDATA   0559H     0001H     ABSOLUTE     
            XDATA   055AH     0001H     ABSOLUTE     
            XDATA   055BH     0001H     ABSOLUTE     
            XDATA   055CH     0001H     ABSOLUTE     
            XDATA   055DH     0001H     ABSOLUTE     
            XDATA   055EH     0001H     ABSOLUTE     
            XDATA   055FH     0001H     ABSOLUTE     
            XDATA   0560H     0001H     ABSOLUTE     
            XDATA   0561H     0001H     ABSOLUTE     
            XDATA   0562H     0001H     ABSOLUTE     
            XDATA   0563H     0001H     ABSOLUTE     
            XDATA   0564H     0001H     ABSOLUTE     
            XDATA   0565H     0001H     ABSOLUTE     
            XDATA   0566H     0001H     ABSOLUTE     
            XDATA   0567H     0001H     ABSOLUTE     
            XDATA   0568H     0001H     ABSOLUTE     
            XDATA   0569H     0001H     ABSOLUTE     
            XDATA   056AH     0001H     ABSOLUTE     
            XDATA   056BH     0001H     ABSOLUTE     
            XDATA   056CH     0001H     ABSOLUTE     
            XDATA   056DH     0001H     ABSOLUTE     
            XDATA   056EH     0001H     ABSOLUTE     
            XDATA   056FH     0001H     ABSOLUTE     
            XDATA   0570H     0001H     ABSOLUTE     
            XDATA   0571H     0001H     ABSOLUTE     
            XDATA   0572H     0001H     ABSOLUTE     
            XDATA   0573H     0001H     ABSOLUTE     
            XDATA   0574H     0001H     ABSOLUTE     
            XDATA   0575H     0001H     ABSOLUTE     
            XDATA   0576H     0001H     ABSOLUTE     
            XDATA   0577H     0001H     ABSOLUTE     
            XDATA   0578H     0001H     ABSOLUTE     
            XDATA   0579H     0001H     ABSOLUTE     
            XDATA   057AH     0001H     ABSOLUTE     
            XDATA   057BH     0001H     ABSOLUTE     
            XDATA   057CH     0001H     ABSOLUTE     
            XDATA   057DH     0001H     ABSOLUTE     
            XDATA   057EH     0001H     ABSOLUTE     
            XDATA   057FH     0001H     ABSOLUTE     
            XDATA   0580H     0001H     ABSOLUTE     
            XDATA   0581H     0001H     ABSOLUTE     
            XDATA   0582H     0001H     ABSOLUTE     
            XDATA   0583H     0001H     ABSOLUTE     
            XDATA   0584H     0001H     ABSOLUTE     
            XDATA   0585H     0001H     ABSOLUTE     
            XDATA   0586H     0001H     ABSOLUTE     
            XDATA   0587H     0002H     ABSOLUTE     
            XDATA   0589H     0002H     ABSOLUTE     
            XDATA   058BH     0002H     ABSOLUTE     
            XDATA   058DH     0002H     ABSOLUTE     
            XDATA   058FH     0002H     ABSOLUTE     
            XDATA   0591H     0002H     ABSOLUTE     
            XDATA   0593H     0002H     ABSOLUTE     
            XDATA   0595H     0002H     ABSOLUTE     
            XDATA   0597H     0002H     ABSOLUTE     
            XDATA   0599H     0002H     ABSOLUTE     
            XDATA   059BH     0002H     ABSOLUTE     
BL51 BANKED LINKER/LOCATER V6.22                                                      05/30/2019  12:42:35  PAGE 5


            XDATA   059DH     0002H     ABSOLUTE     
            XDATA   059FH     0002H     ABSOLUTE     
            XDATA   05A1H     0004H     ABSOLUTE     
            XDATA   05A5H     0004H     ABSOLUTE     
            XDATA   05A9H     0004H     ABSOLUTE     
            XDATA   05ADH     0004H     ABSOLUTE     
            XDATA   05B1H     0006H     ABSOLUTE     
            XDATA   05B7H     0004H     ABSOLUTE     
            XDATA   05BBH     0003H     ABSOLUTE     
            XDATA   05BEH     0001H     ABSOLUTE     
            XDATA   05BFH     0002H     ABSOLUTE     
            XDATA   05C1H     0002H     ABSOLUTE     
            XDATA   05C3H     0002H     ABSOLUTE     
            XDATA   05C5H     0002H     ABSOLUTE     
            XDATA   05C7H     0005H     ABSOLUTE     
            XDATA   05CCH     0001H     ABSOLUTE     
            XDATA   05CDH     0001H     ABSOLUTE     
            XDATA   05CEH     0001H     ABSOLUTE     
            XDATA   05CFH     0001H     ABSOLUTE     
            XDATA   05D0H     0002H     ABSOLUTE     
            XDATA   05D2H     0002H     ABSOLUTE     
            XDATA   05D4H     0002H     ABSOLUTE     
            XDATA   05D6H     0002H     ABSOLUTE     
            XDATA   05D8H     0002H     ABSOLUTE     
            XDATA   05DAH     0005H     ABSOLUTE     
            XDATA   05DFH     0002H     ABSOLUTE     
            XDATA   05E1H     0002H     ABSOLUTE     
            XDATA   05E3H     0001H     ABSOLUTE     
            XDATA   05E4H     0002H     ABSOLUTE     
            XDATA   05E6H     0005H     ABSOLUTE     
            XDATA   05EBH     0001H     ABSOLUTE     
            XDATA   05ECH     0001H     ABSOLUTE     
            XDATA   05EDH     0001H     ABSOLUTE     
            XDATA   05EEH     0001H     ABSOLUTE     
            XDATA   05EFH     0001H     ABSOLUTE     
            XDATA   05F0H     0006H     ABSOLUTE     
            XDATA   05F6H     0006H     ABSOLUTE     
            XDATA   05FCH     0001H     ABSOLUTE     
            XDATA   05FDH     0103H     UNIT         ?XD?ERASEAREA?OTA
            XDATA   0700H     00A6H     UNIT         ?XD?HOST
            XDATA   07A6H     0095H     UNIT         ?XD?SERVICEGEN
            XDATA   083BH     005FH     UNIT         ?XD?LINKLAYER
            XDATA   089AH     0049H     UNIT         ?XD?MAIN?MAIN_24G
            XDATA   08E3H     0026H     UNIT         ?XD?_SMPC1?LINKLAYER
            XDATA   0909H     0025H     UNIT         ?XD?PRCSS_LL_ENC_REQ?LINKLAYER
            XDATA   092EH     0019H     UNIT         ?XD?PRCSS_OPCODE_ATT_READ_BY_GROUP_TYPE_REQUEST?HOST
            XDATA   0947H     0018H     UNIT         ?XD?PRCSS_OPCODE_ATT_READ_BY_TYPE_REQUEST?HOST
            XDATA   095FH     0018H     UNIT         ?XD?PROPRIETARY
            XDATA   0977H     0016H     UNIT         ?XD?_SMPS1?LINKLAYER
            XDATA   098DH     0014H     UNIT         ?XD?PRCSS_BLE_CODE_SMP_IDENTITY_ADDRESS_INFORMATION?HOST
            XDATA   09A1H     0012H     UNIT         ?XD?ADVGO?LINKLAYER
            XDATA   09B3H     0011H     UNIT         ?XD?PRCSS_BLE_CODE_SMP_PAIRING_RANDOM?HOST
            XDATA   09C4H     0011H     UNIT         ?XD?TXDATA_PROCESS?LINKLAYER
            XDATA   09D5H     0010H     UNIT         ?XD?PRCSS_BLE_CODE_SMP_PAIRING_CONFIRM?HOST
            XDATA   09E5H     0010H     UNIT         ?XD?SETBLE_TIMEINTERVAL_CONNECT?LINKLAYER
            XDATA   09F5H     000FH     UNIT         ?XD?OTA_PROCESS?OTA
            XDATA   0A04H     000FH     UNIT         ?XD?_PROP_RUNRX?PROPRIETARY
BL51 BANKED LINKER/LOCATER V6.22                                                      05/30/2019  12:42:35  PAGE 6


            XDATA   0A13H     000DH     UNIT         ?XD?_SETBLE_CONNTXDATA_ATT_ERROR_RESPONSE?LINKLAYER
            XDATA   0A20H     000DH     UNIT         ?XD?_PROP_RUNTX?PROPRIETARY
            XDATA   0A2DH     000CH     UNIT         ?XD?_ENTRYCMD?OTA
            XDATA   0A39H     000CH     UNIT         ?XD?_ENTRYDATA?OTA
            XDATA   0A45H     000BH     UNIT         ?XD?_BLE_SENDDATA?HOST
            XDATA   0A50H     0009H     UNIT         ?XD?_CHKBLE_ATT_CHR_ACSSWR_BYUSER?APPLICATION_CHECK
            XDATA   0A59H     0009H     UNIT         ?XD?PRCSS_LL_FEATURE_REQ?LINKLAYER
            XDATA   0A62H     0008H     UNIT         ?XD?_CMD_FLASHBOND?HOST
            XDATA   0A6AH     0008H     UNIT         ?XD?_BLE_SETCONNECTPARAMETERUPDATEREQUEST?LINKLAYER
            XDATA   0A72H     0007H     UNIT         ?XD?PRCSS_OPCODE_ATT_EXECUTE_WRITE_REQUEST?HOST
            XDATA   0A79H     0007H     UNIT         ?XD?INITBLE_ATTSERVPARAMTER?LINKLAYER
            XDATA   0A80H     0007H     UNIT         ?XD?_WRITEFLASH_START?IAP
            XDATA   0A87H     0007H     UNIT         ?XD?_IAP_READDATA?IAP
            XDATA   0A8EH     0007H     UNIT         ?XD?_IAP_WRITEDATA?IAP
            XDATA   0A95H     0006H     UNIT         ?XD?PRCSS_OPCODE_ATT_READ_BLOB_REQUEST?HOST
            XDATA   0A9BH     0006H     UNIT         ?XD?PRCSS_OPCODE_ATT_WRITE_REQUEST?HOST
            XDATA   0AA1H     0006H     UNIT         ?XD?PRCSS_OPCODE_ATT_WRITE_COMMAND?HOST
            XDATA   0AA7H     0006H     UNIT         ?XD?SETBLE_TIMEINTERVAL_WINOFFSET?LINKLAYER
            XDATA   0AADH     0006H     UNIT         ?XD?_SETBLE_CONNTXDATA?LINKLAYER
            XDATA   0AB3H     0006H     UNIT         ?XD?_SETBLE_CONNTXCTRL?LINKLAYER
            XDATA   0AB9H     0006H     UNIT         ?XD?PRCSS_LL_VERSION_IND?LINKLAYER
            XDATA   0ABFH     0006H     UNIT         ?XD?_PROP_CREATE?PROPRIETARY
            XDATA   0AC5H     0005H     UNIT         ?XD?MAIN_24G
            XDATA   0ACAH     0005H     UNIT         ?XD?PRCSS_OPCODE_ATT_FIND_INFORMATION_REQUEST?HOST
            XDATA   0ACFH     0005H     UNIT         ?XD?PRCSS_OPCODE_ATT_FIND_BY_TYPE_VALUE_REQUEST?HOST
            XDATA   0AD4H     0005H     UNIT         ?XD?_MARK_PID_INFO_FLASHBOND?HOST
            XDATA   0AD9H     0005H     UNIT         ?XD?_MARK_PID_DATA_FLASHBOND?HOST
            XDATA   0ADEH     0005H     UNIT         ?XD?FIL_DATA_FLASHBONDWEXST_PBID?HOST
            XDATA   0AE3H     0005H     UNIT         ?XD?INITBLE?LINKLAYER
            XDATA   0AE8H     0005H     UNIT         ?XD?_BLE_ADV_CMD?LINKLAYER
            XDATA   0AEDH     0004H     UNIT         ?XD?_SET_TIMER1_N_MS?MAIN_24G
            XDATA   0AF1H     0004H     UNIT         ?XD?_KNL_MEMCPY?HOST
            XDATA   0AF5H     0004H     UNIT         ?XD?_KNL_MEMCPYINV?HOST
            XDATA   0AF9H     0004H     UNIT         ?XD?_KNL_CODECPY?HOST
            XDATA   0AFDH     0004H     UNIT         ?XD?_KNL_CODECPYINV?HOST
            XDATA   0B01H     0004H     UNIT         ?XD?_KNL_MEMCOMP?HOST
            XDATA   0B05H     0004H     UNIT         ?XD?PRCSS_OPCODE_ATT_READ_REQUEST?HOST
            XDATA   0B09H     0004H     UNIT         ?XD?_ERSDATA_FLASHBOND?HOST
            XDATA   0B0DH     0004H     UNIT         ?XD?_ERSINFO_FLASHBOND?HOST
            XDATA   0B11H     0004H     UNIT         ?XD?_BLE_PASSKEY_SET?HOST
            XDATA   0B15H     0004H     UNIT         ?XD?RXDATA_PROCESS?LINKLAYER
            XDATA   0B19H     0004H     UNIT         ?XD?PRCSS_LL_CONNECTION_UPDATE_REQ?LINKLAYER
            XDATA   0B1DH     0004H     UNIT         ?XD?PRCSS_LL_START_ENC_RSP?LINKLAYER
            XDATA   0B21H     0004H     UNIT         ?XD?SETRXWINDOWTIMING?RFA8107
            XDATA   0B25H     0003H     UNIT         ?XD?_CHKBLE_ATT_CHR_ACSSRD_BYUSER?APPLICATION_CHECK
            XDATA   0B28H     0003H     UNIT         ?XD?_WRITETXFIFO?MAIN_24G
            XDATA   0B2BH     0003H     UNIT         ?XD?_READRXFIFO?MAIN_24G
            XDATA   0B2EH     0003H     UNIT         ?XD?PRCSS_OPCODE_ATT_PREPARE_WRITE_REQUEST?HOST
            XDATA   0B31H     0003H     UNIT         ?XD?_SETADV_TO?LINKLAYER
            XDATA   0B34H     0003H     UNIT         ?XD?PRCSS_LL_START_ENC_REQ?LINKLAYER
            XDATA   0B37H     0003H     UNIT         ?XD?INITRF?RFA8107
            XDATA   0B3AH     0003H     UNIT         ?XD?PARTIAL_INITRF?RFA8107
            XDATA   0B3DH     0003H     UNIT         ?XD?_WRITEHWFIFO?PROPRIETARY
            XDATA   0B40H     0003H     UNIT         ?XD?_PROP_DELETE?PROPRIETARY
            XDATA   0B43H     0003H     UNIT         ?XD?_PROP_START?PROPRIETARY
            XDATA   0B46H     0002H     UNIT         ?XD?PRCSS_OPCODE_ATT_READ_BY_TYPE_RESPONSE?HOST
            XDATA   0B48H     0002H     UNIT         ?XD?PRCSS_OPCODE_ATT_HANDLE_VALUE_NOTIFICATION?HOST
BL51 BANKED LINKER/LOCATER V6.22                                                      05/30/2019  12:42:35  PAGE 7


            XDATA   0B4AH     0002H     UNIT         ?XD?_SETADV_RUN_CTRL?LINKLAYER
            XDATA   0B4CH     0002H     UNIT         ?XD?CHECKBLETIMER?LINKLAYER
            XDATA   0B4EH     0002H     UNIT         ?XD?A8107_CONFIG?RFA8107
            XDATA   0B50H     0002H     UNIT         ?XD?A8107_CAL?RFA8107
            XDATA   0B52H     0002H     UNIT         ?XD?GET_INTERVAL_TIME_LEFT?PROPRIETARY
            XDATA   0B54H     0001H     UNIT         ?XD?FIL_INFO_FLASHBONDWEXST_PBID?HOST
            XDATA   0B55H     0001H     UNIT         ?XD?_BLE_INITIMMEDIATEALERTLEVEL?LINKLAYER
            XDATA   0B56H     0001H     UNIT         ?XD?_BLE_INITLINKLOSSALERTLEVEL?LINKLAYER
            XDATA   0B57H     0001H     UNIT         ?XD?MD_PROCEDURE?LINKLAYER
            XDATA   0B58H     0001H     UNIT         ?XD?PRCSS_LL_PAUSE_ENC_REQ?LINKLAYER
            XDATA   0B59H     0001H     UNIT         ?XD?SMPAES?LINKLAYER
            XDATA   0B5AH     0001H     UNIT         ?XD?CONSUMER_BONDINGRESULT_CLEAR?LINKLAYER
            XDATA   0B5BH     0001H     UNIT         ?XD?_BLE_SETTXPOWER?RFA8107
            XDATA   0B5CH     0001H     UNIT         ?XD?BATTERYDETECT?RFA8107
            XDATA   0B5DH     0001H     UNIT         ?XD?OTA_KEEPBONDING?OTA
            XDATA   0B5EH     0001H     UNIT         ?XD?OTA_UPDATASPEED?OTA
                    0B5FH     03A1H                  *** GAP ***
            XDATA   0F00H     0001H     ABSOLUTE     
            XDATA   0F01H     0001H     ABSOLUTE     
            XDATA   0F02H     0001H     ABSOLUTE     
            XDATA   0F03H     0002H     ABSOLUTE     
            XDATA   0F05H     0002H     ABSOLUTE     
            XDATA   0F07H     0014H     ABSOLUTE     
            XDATA   0F1BH     0010H     ABSOLUTE     
            XDATA   0F2BH     0001H     ABSOLUTE     
            XDATA   0F2CH     0001H     ABSOLUTE     
            XDATA   0F2DH     0014H     ABSOLUTE     
            XDATA   0F41H     0001H     ABSOLUTE     
            XDATA   0F42H     0001H     ABSOLUTE     

            * * * * * * *   C O D E   M E M O R Y   * * * * * * *
            CODE    0000H     0004H     ABSOLUTE     
                    0004H     0007H                  *** GAP ***
            CODE    000BH     0003H     ABSOLUTE     
                    000EH     0005H                  *** GAP ***
            CODE    0013H     0003H     ABSOLUTE     
                    0016H     0005H                  *** GAP ***
            CODE    001BH     0003H     ABSOLUTE     
                    001EH     0005H                  *** GAP ***
            CODE    0023H     0003H     ABSOLUTE     
                    0026H     0005H                  *** GAP ***
            CODE    002BH     0003H     ABSOLUTE     
                    002EH     0005H                  *** GAP ***
            CODE    0033H     0003H     ABSOLUTE     
                    0036H     0005H                  *** GAP ***
            CODE    003BH     0003H     ABSOLUTE     
                    003EH     0005H                  *** GAP ***
            CODE    0043H     0003H     ABSOLUTE     
                    0046H     0005H                  *** GAP ***
            CODE    004BH     0003H     ABSOLUTE     
                    004EH     0005H                  *** GAP ***
            CODE    0053H     0003H     ABSOLUTE     
                    0056H     0005H                  *** GAP ***
            CODE    005BH     0003H     ABSOLUTE     
                    005EH     0005H                  *** GAP ***
            CODE    0063H     0003H     ABSOLUTE     
                    0066H     0005H                  *** GAP ***
BL51 BANKED LINKER/LOCATER V6.22                                                      05/30/2019  12:42:35  PAGE 8


            CODE    006BH     0003H     ABSOLUTE     
                    006EH     0005H                  *** GAP ***
            CODE    0073H     0003H     ABSOLUTE     
                    0076H     0005H                  *** GAP ***
            CODE    007BH     01C8H     ABSOLUTE     
                    0243H     00B5H                  *** GAP ***
            CODE    02F8H     0008H     ABSOLUTE     
            CODE    0300H     0003H     ABSOLUTE     
            CODE    0303H     0008H     UNIT         ?PR?BLE_GETIDENTIFICATIONRESULT?HOST
            CODE    030BH     0003H     ABSOLUTE     
            CODE    030EH     0005H     UNIT         ?PR?ENABLETIMER0?RFA8107
            CODE    0313H     0003H     ABSOLUTE     
            CODE    0316H     0003H     UNIT         ?PR?PRCSS_OPCODE_ATT_HANDLE_VALUE_CONFIRMATION?HOST
            CODE    0319H     0001H     UNIT         ?PR?PRCSS_L2CAP_CID_NULL_IDENTIFIER?HOST
            CODE    031AH     0001H     UNIT         ?PR?PRCSS_L2CAP_CID_L2CAP_SIGNALING_CHANNEL?HOST
            CODE    031BH     0003H     ABSOLUTE     
            CODE    031EH     0003H     UNIT         ?PR?PRCSS_LL_TERMINATE_IND?LINKLAYER
            CODE    0321H     0001H     UNIT         ?PR?PRCSS_L2CAP_CID_CONNECTIONLESS_CHANNEL?HOST
            CODE    0322H     0001H     UNIT         ?PR?PRCSS_L2CAP_CID_AMP_MANAGER_PROTOCOL?HOST
            CODE    0323H     0003H     ABSOLUTE     
            CODE    0326H     0003H     UNIT         ?PR?SETBLE_CONNDIS?LINKLAYER
            CODE    0329H     0001H     UNIT         ?PR?PRCSS_OPCODE_ATT_NULL?HOST
            CODE    032AH     0001H     UNIT         ?PR?PRCSS_OPCODE_ATT_EXCHANGE_MTU_RESPONSE?HOST
            CODE    032BH     0003H     ABSOLUTE     
            CODE    032EH     000DH     UNIT         ?PR?BLE_SETTERMINATE?LINKLAYER
            CODE    033BH     0003H     ABSOLUTE     
            CODE    033EH     0003H     UNIT         ?PR?BLE_AUTOPWRDOWN_DISABLE?LINKLAYER
            CODE    0341H     0001H     UNIT         ?PR?PRCSS_OPCODE_ATT_READ_RESPONSE?HOST
            CODE    0342H     0001H     UNIT         ?PR?PRCSS_OPCODE_ATT_READ_BLOB_RESPONSE?HOST
            CODE    0343H     0003H     ABSOLUTE     
            CODE    0346H     0003H     UNIT         ?PR?BLE_WHITELIST_ENABLE?LINKLAYER
            CODE    0349H     0001H     UNIT         ?PR?PRCSS_OPCODE_ATT_READ_MULTIPLE_RESPONSE?HOST
            CODE    034AH     0001H     UNIT         ?PR?PRCSS_OPCODE_ATT_READ_BY_GROUP_TYPE_RESPONSE?HOST
            CODE    034BH     0003H     ABSOLUTE     
            CODE    034EH     0003H     UNIT         ?PR?BLE_WHITELIST_DISABLE?LINKLAYER
            CODE    0351H     0001H     UNIT         ?PR?PRCSS_OPCODE_ATT_WRITE_RESPONSE?HOST
            CODE    0352H     0001H     UNIT         ?PR?PRCSS_OPCODE_ATT_PREPARE_WRITE_RESPONSE?HOST
            CODE    0353H     0003H     ABSOLUTE     
            CODE    0356H     0003H     UNIT         ?PR?CONSUMER_ENCRYPTION_STRUCT?LINKLAYER
            CODE    0359H     0001H     UNIT         ?PR?PRCSS_OPCODE_ATT_EXECUTE_WRITE_RESPONSE?HOST
            CODE    035AH     0001H     UNIT         ?PR?PRCSS_OPCODE_ATT_HANDLE_VALUE_INDICATION?HOST
            CODE    035BH     0003H     ABSOLUTE     
            CODE    035EH     00A2H     UNIT         ?PR?_SETBLE_CONNTXDATA?LINKLAYER
            CODE    0400H     00B5H     UNIT         ?PR?OTA_KEEPBONDING?OTA
            CODE    04B5H     0016H     UNIT         ?PR?RESET4OTA?OTA
            CODE    04CBH     0026H     UNIT         ?PR?ERASECKCODE?OTA
            CODE    04F1H     00D2H     UNIT         ?PR?ERASEAREA?OTA
            CODE    05C3H     019BH     UNIT         ?PR?_ENTRYCMD?OTA
            CODE    075EH     0229H     UNIT         ?PR?_ENTRYDATA?OTA
            CODE    0987H     0020H     UNIT         ?PR?OTA_INITIALIZE?OTA
            CODE    09A7H     00D7H     UNIT         ?PR?OTA_UPDATASPEED?OTA
            CODE    0A7EH     0034H     UNIT         ?PR?_OTA_SETRECEIVEDATA?OTA
            CODE    0AB2H     0323H     UNIT         ?PR?OTA_PROCESS?OTA
            CODE    0DD5H     0162H     UNIT         ?PR?OTA
            CODE    0F37H     09E1H     UNIT         ?C?LIB_CODE
            CODE    1918H     0591H     UNIT         ?PR?PRCSS_LL_ENC_REQ?LINKLAYER
            CODE    1EA9H     014AH     UNIT         ?PR?BATTERYDETECT?RFA8107
BL51 BANKED LINKER/LOCATER V6.22                                                      05/30/2019  12:42:35  PAGE 9


            CODE    1FF3H     000DH     UNIT         ?PR?BLE_GETCONNECTPARAMETER?LINKLAYER
            CODE    2000H     0004H     UNIT         ?PR?FLASH_INITIAL?IAP
            CODE    2004H     0004H     UNIT         ?PR?FLASH_RELEASE?IAP
            CODE    2008H     0023H     UNIT         ?PR?FLASH_PROTECT_BATTERY?IAP
            CODE    202BH     0004H     UNIT         ?PR?PWE_ENABLE?IAP
            CODE    202FH     0007H     UNIT         ?PR?IAP_INITIALIZE?IAP
            CODE    2036H     0007H     UNIT         ?PR?_IAP_BANKSWITCH?IAP
            CODE    203DH     0011H     UNIT         ?PR?_IAP_INIT?IAP
            CODE    204EH     008BH     UNIT         ?PR?_IAP_ERASE?IAP
            CODE    20D9H     0038H     UNIT         ?PR?_IAP_READDATA?IAP
            CODE    2111H     009CH     UNIT         ?PR?_IAP_WRITEDATA?IAP
            CODE    21ADH     0B3EH     UNIT         ?CO?HOST
            CODE    2CEBH     088BH     UNIT         ?PR?ADVGO?LINKLAYER
            CODE    3576H     07DEH     UNIT         ?PR?LINKLAYER
            CODE    3D54H     07C9H     UNIT         ?PR?HOST
            CODE    451DH     0752H     UNIT         ?PR?_CMD_FLASHBOND?HOST
            CODE    4C6FH     0391H     UNIT         ?PR?PRCSS_OPCODE_ATT_WRITE_REQUEST?HOST
            CODE    5000H     009FH     UNIT         ?PR?_ERASE_START?IAP
            CODE    509FH     0121H     UNIT         ?PR?_WRITEFLASH_START?IAP
            CODE    51C0H     0002H     UNIT         ?PR?INT1_ISR?INTERRUPT_24G
            CODE    51C2H     0073H     UNIT         ?PR?TIMER1_ISR?INTERRUPT_24G
            CODE    5235H     0002H     UNIT         ?PR?UART0ISR?INTERRUPT_24G
            CODE    5237H     0002H     UNIT         ?PR?TIMER2_ISR?INTERRUPT_24G
            CODE    5239H     0002H     UNIT         ?PR?INT2_ISR?INTERRUPT_24G
            CODE    523BH     0002H     UNIT         ?PR?SLEEPTIMER1_ISR?INTERRUPT_24G
            CODE    523DH     0002H     UNIT         ?PR?RTC_ISR?INTERRUPT_24G
            CODE    523FH     0068H     UNIT         ?PR?RFISR?INTERRUPT_24G
            CODE    52A7H     0002H     UNIT         ?PR?KEYINT_ISR?INTERRUPT_24G
            CODE    52A9H     002BH     UNIT         ?PR?_WRITETXFIFO?MAIN_24G
            CODE    52D4H     002CH     UNIT         ?PR?_READRXFIFO?MAIN_24G
            CODE    5300H     000AH     UNIT         ?PR?DISABLETIMER1?MAIN_24G
            CODE    530AH     000BH     UNIT         ?PR?ENABLETIMER1?MAIN_24G
            CODE    5315H     0039H     UNIT         ?PR?_SET_TIMER1_N_MS?MAIN_24G
            CODE    534EH     044AH     UNIT         ?PR?MAIN?MAIN_24G
            CODE    5798H     0048H     UNIT         ?PR?MAIN_24G
            CODE    57E0H     0576H     UNIT         ?CO?SERVICEGEN
            CODE    5D56H     052AH     UNIT         ?PR?CONNECTESTABLISH?LINKLAYER
            CODE    6280H     03A0H     UNIT         ?PR?PRCSS_OPCODE_ATT_WRITE_COMMAND?HOST
            CODE    6620H     038EH     UNIT         ?PR?TXDATA_PROCESS?LINKLAYER
            CODE    69AEH     038BH     UNIT         ?PR?PRCSS_OPCODE_ATT_READ_BY_GROUP_TYPE_REQUEST?HOST
            CODE    6D39H     0384H     UNIT         ?PR?PRCSS_OPCODE_ATT_EXECUTE_WRITE_REQUEST?HOST
            CODE    70BDH     0359H     UNIT         ?PR?PRCSS_OPCODE_ATT_READ_BY_TYPE_REQUEST?HOST
            CODE    7416H     033CH     UNIT         ?PR?INITBLE?LINKLAYER
            CODE    7752H     028BH     UNIT         ?PR?BLE_SLAVE_PROCESS?LINKLAYER
            CODE    79DDH     0023H     UNIT         ?PR?_BLE_PASSKEY_SET?HOST
            CODE    7A00H     0200H     ABSOLUTE     
            CODE    7C00H     0300H     ABSOLUTE     
            CODE    7F00H     00EAH     UNIT         ?PR?PRCSS_BLE_CODE_SMP_PAIRING_REQUEST?HOST
            CODE    7FEAH     000AH     UNIT         ?PR?_CONSUMER_SETBONDING_USE_OLDKEY?LINKLAYER
            CODE    7FF4H     000CH     ABSOLUTE     
            CODE    8000H     0255H     UNIT         ?PR?INITBLE_ATTSERVPARAMTER?LINKLAYER
            CODE    8255H     0228H     UNIT         ?PR?PRCSS_OPCODE_ATT_READ_BY_TYPE_RESPONSE?HOST
            CODE    847DH     020AH     UNIT         ?PR?_BLE_SENDDATA?HOST
            CODE    8687H     0207H     UNIT         ?PR?SETBLE_TIMEINTERVAL_CONNECT?LINKLAYER
            CODE    888EH     0205H     UNIT         ?PR?ACKDATA_PROCESS?LINKLAYER
            CODE    8A93H     01EBH     UNIT         ?PR?RFA8107
            CODE    8C7EH     01CFH     UNIT         ?PR?SETRXWINDOWTIMING?RFA8107
BL51 BANKED LINKER/LOCATER V6.22                                                      05/30/2019  12:42:35  PAGE 10


            CODE    8E4DH     01CCH     UNIT         ?PR?PRCSS_BLE_CODE_SMP_IDENTITY_ADDRESS_INFORMATION?HOST
            CODE    9019H     01C1H     UNIT         ?PR?_PROP_RUNRX?PROPRIETARY
            CODE    91DAH     01A3H     UNIT         ?PR?PRCSS_OPCODE_ATT_FIND_INFORMATION_REQUEST?HOST
            CODE    937DH     018EH     UNIT         ?PR?PRCSS_LL_START_ENC_RSP?LINKLAYER
            CODE    950BH     018DH     UNIT         ?C_INITSEG
            CODE    9698H     017BH     UNIT         ?PR?MD_PROCEDURE?LINKLAYER
            CODE    9813H     016AH     UNIT         ?PR?PRCSS_OPCODE_ATT_FIND_BY_TYPE_VALUE_REQUEST?HOST
            CODE    997DH     016AH     UNIT         ?PR?PRCSS_OPCODE_ATT_READ_BLOB_REQUEST?HOST
            CODE    9AE7H     015DH     UNIT         ?PR?PRCSS_OPCODE_ATT_FIND_INFORMATION_RESPONSE?HOST
            CODE    9C44H     015BH     UNIT         ?PR?_PROP_RUNTX?PROPRIETARY
            CODE    9D9FH     013BH     UNIT         ?PR?_PROP_START?PROPRIETARY
            CODE    9EDAH     0133H     UNIT         ?PR?PRCSS_OPCODE_ATT_PREPARE_WRITE_REQUEST?HOST
            CODE    A00DH     0124H     UNIT         ?PR?_SMPC1?LINKLAYER
            CODE    A131H     0120H     UNIT         ?PR?_BLE_SETTXPOWER?RFA8107
            CODE    A251H     0113H     UNIT         ?PR?FIL_DATA_FLASHBONDWEXST_PBID?HOST
            CODE    A364H     0106H     UNIT         ?PR?_PROP_CREATE?PROPRIETARY
            CODE    A46AH     00FAH     UNIT         ?PR?PRCSS_OPCODE_ATT_READ_REQUEST?HOST
            CODE    A564H     00F8H     UNIT         ?PR?PRCSS_BLE_CODE_SMP_PAIRING_RANDOM?HOST
            CODE    A65CH     00EAH     UNIT         ?PR?PROPRIETARY
            CODE    A746H     00D5H     UNIT         ?PR?FIL_INFO_FLASHBONDWEXST_PBID?HOST
            CODE    A81BH     00D3H     UNIT         ?PR?_BLE_SETCONNECTPARAMETERUPDATEREQUEST?LINKLAYER
            CODE    A8EEH     00CAH     UNIT         ?PR?_SETBLE_CONNTXCTRL?LINKLAYER
            CODE    A9B8H     00C3H     UNIT         ?PR?_ERSDATA_FLASHBOND?HOST
            CODE    AA7BH     00C3H     UNIT         ?PR?_ERSINFO_FLASHBOND?HOST
            CODE    AB3EH     00BEH     UNIT         ?PR?_SETADV_RUN_CTRL?LINKLAYER
            CODE    ABFCH     00BEH     UNIT         ?PR?_PROP_STOP?PROPRIETARY
            CODE    ACBAH     00BBH     UNIT         ?PR?INITBLESW?LINKLAYER
            CODE    AD75H     00B9H     UNIT         ?PR?_PRCSS_BLE_OPCODE_ATT?HOST
            CODE    AE2EH     00B6H     UNIT         ?PR?PARTIAL_INITRF?RFA8107
            CODE    AEE4H     00ADH     UNIT         ?PR?RXDATA_PROCESS?LINKLAYER
            CODE    AF91H     00A9H     UNIT         ?PR?A8107_CONFIG?RFA8107
            CODE    B03AH     00A1H     UNIT         ?PR?RXPACKET?LINKLAYER
            CODE    B0DBH     00A0H     UNIT         ?PR?SETBLE_CHANNEL?LINKLAYER
            CODE    B17BH     0099H     UNIT         ?PR?CHECKBLETIMER?LINKLAYER
            CODE    B214H     0098H     UNIT         ?PR?A8107_CAL?RFA8107
            CODE    B2ACH     0094H     UNIT         ?PR?_BLE_ANCS_SEND_CONTROL_POINT?HOST
            CODE    B340H     008DH     UNIT         ?PR?_PRCSS_LL_CONTROL_PDU?LINKLAYER
            CODE    B3CDH     008CH     UNIT         ?C_C51STARTUP
            CODE    B459H     008CH     UNIT         ?PR?PRCSS_LL_CONNECTION_UPDATE_REQ?LINKLAYER
            CODE    B4E5H     008BH     UNIT         ?PR?_BLE_ADV_CMD?LINKLAYER
            CODE    B570H     0088H     UNIT         ?PR?PRCSS_BLE_CODE_SMP_PAIRING_CONFIRM?HOST
            CODE    B5F8H     0084H     UNIT         ?PR?PRCSS_OPCODE_ATT_HANDLE_VALUE_NOTIFICATION?HOST
            CODE    B67CH     0081H     UNIT         ?CO?RFA8107
            CODE    B6FDH     007EH     UNIT         ?PR?CONSUMER_BONDINGRESULT_CLEAR?LINKLAYER
            CODE    B77BH     007AH     UNIT         ?PR?PRCSS_LL_PAUSE_ENC_REQ?LINKLAYER
            CODE    B7F5H     0079H     UNIT         ?PR?GETBLE_LINKMESSAGE?LINKLAYER
            CODE    B86EH     006BH     UNIT         ?PR?SETBLE_TIMEINTERVAL_WINOFFSET?LINKLAYER
            CODE    B8D9H     0067H     UNIT         ?PR?A8107_RCSELECT?RFA8107
            CODE    B940H     0066H     UNIT         ?PR?PRCSS_LL_CHANNEL_MAP_REQ?LINKLAYER
            CODE    B9A6H     0062H     UNIT         ?PR?INITMCU?MCUFUNCTION
            CODE    BA08H     0062H     UNIT         ?PR?_BLE_INITIMMEDIATEALERTLEVEL?LINKLAYER
            CODE    BA6AH     0062H     UNIT         ?PR?_BLE_INITLINKLOSSALERTLEVEL?LINKLAYER
            CODE    BACCH     005BH     UNIT         ?PR?PRCSS_OPCODE_ATT_FIND_BY_TYPE_VALUE_RESPONSE?HOST
            CODE    BB27H     005BH     UNIT         ?PR?_MARK_PID_DATA_FLASHBOND?HOST
            CODE    BB82H     0057H     UNIT         ?PR?_MARK_PID_INFO_FLASHBOND?HOST
            CODE    BBD9H     0057H     UNIT         ?PR?GENERATIONLTK?LINKLAYER
            CODE    BC30H     0057H     UNIT         ?PR?_CHGROUPCAL?RFA8107
BL51 BANKED LINKER/LOCATER V6.22                                                      05/30/2019  12:42:35  PAGE 11


            CODE    BC87H     0054H     UNIT         ?PR?SETBLE_ANCS_NOTIFICATINOSOURCE?HOST
            CODE    BCDBH     0054H     UNIT         ?PR?SETBLE_ANCS_DATASOURCE?HOST
            CODE    BD2FH     0054H     UNIT         ?PR?INITBLESMP_RE?LINKLAYER
            CODE    BD83H     0052H     UNIT         ?PR?SMPAES?LINKLAYER
            CODE    BDD5H     0051H     UNIT         ?PR?_PRCSS_BLE_CODE_SMP?HOST
            CODE    BE26H     0051H     UNIT         ?PR?SETBLE_ANCS_DISCOVER?HOST
            CODE    BE77H     0051H     UNIT         ?PR?DC_SHIFT?LINKLAYER
            CODE    BEC8H     0050H     UNIT         ?PR?TIMER0ISR?RFA8107
            CODE    BF18H     0050H     UNIT         ?PR?_PROP_DELETE?PROPRIETARY
            CODE    BF68H     004FH     UNIT         ?PR?_CHKBLE_ATTRIBUTE_PERMISSION_READ?HOST
            CODE    BFB7H     004FH     UNIT         ?PR?_CHKBLE_ATTRIBUTE_PERMISSION_WRITE?HOST
            CODE    C006H     004BH     UNIT         ?PR?_RF_TIMER500MS?RFA8107
            CODE    C051H     004AH     UNIT         ?PR?PRCSS_LL_START_ENC_REQ?LINKLAYER
            CODE    C09BH     0049H     UNIT         ?PR?_SETBLE_SN_NESN?LINKLAYER
            CODE    C0E4H     0046H     UNIT         ?PR?SETBLE_CONNECTUPDATE?LINKLAYER
            CODE    C12AH     0043H     UNIT         ?PR?_SETADV_TO?LINKLAYER
            CODE    C16DH     0040H     UNIT         ?CO?LINKLAYER
            CODE    C1ADH     0040H     UNIT         ?PR?INITRF?RFA8107
            CODE    C1EDH     003EH     UNIT         ?PR?PRCSS_OPCODE_ATT_ERROR_RESPONSE?HOST
            CODE    C22BH     003CH     UNIT         ?PR?PRCSS_L2CAP_CID_LE_L2CAP_SIGNALING_CHANNEL?HOST
            CODE    C267H     003BH     UNIT         ?PR?PRCSS_BLE_CODE_SMP_MASTER_IDENTIFICATION?HOST
            CODE    C2A2H     003BH     UNIT         ?PR?_A8107_RX_PKT_NUM?LINKLAYER
            CODE    C2DDH     003BH     UNIT         ?PR?_A8107_TX_PKT_NUM?LINKLAYER
            CODE    C318H     003BH     UNIT         ?PR?GET_INTERVAL_TIME_LEFT?PROPRIETARY
            CODE    C353H     003AH     UNIT         ?PR?_SMPS1?LINKLAYER
            CODE    C38DH     0039H     UNIT         ?PR?_SETADV_TIMING?LINKLAYER
            CODE    C3C6H     0038H     UNIT         ?PR?_KNL_MEMCOMP?HOST
            CODE    C3FEH     0037H     UNIT         ?PR?_KNL_CODECPYINV?HOST
            CODE    C435H     0036H     UNIT         ?PR?_KNL_MEMCPYINV?HOST
            CODE    C46BH     0034H     UNIT         ?PR?_KNL_CODECPY?HOST
            CODE    C49FH     0033H     UNIT         ?PR?_PRCSS_L2CAP_CID?HOST
            CODE    C4D2H     0033H     UNIT         ?PR?_KNL_MEMCPY?HOST
            CODE    C505H     0033H     UNIT         ?PR?PRCSS_LL_FEATURE_REQ?LINKLAYER
            CODE    C538H     002DH     UNIT         ?PR?BLE_AUTOPWRDOWN_ENABLE?LINKLAYER
            CODE    C565H     002CH     UNIT         ?PR?BLE_ANCS_DISCOVER?HOST
            CODE    C591H     002BH     UNIT         ?PR?PRCSS_L2CAP_CID_ATTRIBUTE_PROTOCOL?HOST
            CODE    C5BCH     002BH     UNIT         ?PR?_SETBLE_CONNTXDATA_ATT_ERROR_RESPONSE?LINKLAYER
            CODE    C5E7H     002BH     UNIT         ?PR?_WRITEHWFIFO?PROPRIETARY
            CODE    C612H     002AH     UNIT         ?PR?PRCSS_LL_PAUSE_ENC_RSP?LINKLAYER
            CODE    C63CH     0029H     UNIT         ?PR?PRCSS_LL_VERSION_IND?LINKLAYER
            CODE    C665H     0028H     UNIT         ?PR?BLE_ANCS_DATASOURCE_ENABLE?HOST
            CODE    C68DH     0028H     UNIT         ?PR?BLE_ANCS_DATASOURCE_DISABLE?HOST
            CODE    C6B5H     0025H     UNIT         ?PR?SETBLE_LLTERMINATE?LINKLAYER
            CODE    C6DAH     0023H     UNIT         ?PR?_SETBLE_CHECK_SN_NESN?LINKLAYER
            CODE    C6FDH     0022H     UNIT         ?PR?CONSUMER_BONDING_SUCCESS?LINKLAYER
            CODE    C71FH     0021H     UNIT         ?PR?PRCSS_BLE_CODE_SMP_SECURITY_REQUEST?HOST
            CODE    C740H     0020H     UNIT         ?PR?BLE_GETANCS_RESULT?HOST
            CODE    C760H     0020H     UNIT         ?PR?_SETADV_TYPE?LINKLAYER
            CODE    C780H     0020H     UNIT         ?PR?_BLE_SETWHITELIST?LINKLAYER
            CODE    C7A0H     001FH     UNIT         ?PR?BLE_ANCS_NOTIFICATIONSOURCE_ENABLE?HOST
            CODE    C7BFH     001FH     UNIT         ?PR?BLE_ANCS_NOTIFICATIONSOURCE_DISABLE?HOST
            CODE    C7DEH     001FH     UNIT         ?PR?INITTIMER0?RFA8107
            CODE    C7FDH     001FH     UNIT         ?PR?GET_INTERVAL_TIME?PROPRIETARY
            CODE    C81CH     001EH     UNIT         ?PR?RANDNUMBERGENERATOR?LINKLAYER
            CODE    C83AH     001DH     UNIT         ?PR?SETBLE_LLBUSY?LINKLAYER
            CODE    C857H     001CH     UNIT         ?PR?GETRSSI?RFA8107
            CODE    C873H     001BH     UNIT         ?PR?_GETBLE_ATTRIBUTE_VALUE_DYNMCLNGTH?HOST
BL51 BANKED LINKER/LOCATER V6.22                                                      05/30/2019  12:42:35  PAGE 12


            CODE    C88EH     001BH     UNIT         ?PR?__DELAY5US?RFA8107
            CODE    C8A9H     0019H     UNIT         ?PR?PRCSS_BLE_CODE_SMP_IDENTITY_INFORMATION?HOST
            CODE    C8C2H     0019H     UNIT         ?PR?PRCSS_BLE_CODE_SMP_SIGNING_INFORMATION?HOST
            CODE    C8DBH     0018H     UNIT         ?CO?MAIN_24G
            CODE    C8F3H     0018H     UNIT         ?PR?_CONSUMER_SETBONDING_STATUS?LINKLAYER
            CODE    C90BH     0018H     UNIT         ?PR?ENABLEPRTIMER1?PROPRIETARY
            CODE    C923H     0017H     UNIT         ?PR?_SETADV_CHANNEL?LINKLAYER
            CODE    C93AH     0017H     UNIT         ?PR?_SETADV_RND_CTRL?LINKLAYER
            CODE    C951H     0017H     UNIT         ?PR?_SETADV_TO_CTRL?LINKLAYER
            CODE    C968H     0017H     UNIT         ?PR?BLE_GETCONNECTUPDATERESULT?LINKLAYER
            CODE    C97FH     0016H     UNIT         ?PR?PRCSS_OPCODE_ATT_EXCHANGE_MTU_REQUEST?HOST
            CODE    C995H     0015H     UNIT         ?PR?_CHKBLE_ATT_CHR_ACSSWR_BYUSER?APPLICATION_CHECK
            CODE    C9AAH     0015H     UNIT         ?PR?_GETBLE_ATTRIBUTE_TYPE_SIZE?HOST
            CODE    C9BFH     0015H     UNIT         ?PR?A8107_WRITEAESKEY?LINKLAYER
            CODE    C9D4H     0015H     UNIT         ?PR?INIT_Q_ATT_HDL_PREWR?LINKLAYER
            CODE    C9E9H     0015H     UNIT         ?PR?A8107_WRITEID?RFA8107
            CODE    C9FEH     0014H     UNIT         ?PR?PRCSS_BLE_CODE_SMP_PAIRING_FAILED?HOST
            CODE    CA12H     0014H     UNIT         ?PR?A8107_READAESDATA?LINKLAYER
            CODE    CA26H     0014H     UNIT         ?PR?A8107_WRITEAESDATA?LINKLAYER
            CODE    CA3AH     0012H     UNIT         ?PR?_CHKIFBLE_ATT_CHR_ACSS_BYUSER?HOST
            CODE    CA4CH     0011H     UNIT         ?PR?CONSUMER_GETBONDING_RESULT?LINKLAYER
            CODE    CA5DH     0010H     UNIT         ?PR?PRCSS_PASSKEY_PAIRING_CONFIRM?HOST
            CODE    CA6DH     0010H     UNIT         ?PR?INITCRC?RFA8107
            CODE    CA7DH     000FH     UNIT         ?PR?BLE_GETTERMINATERESULT?LINKLAYER
            CODE    CA8CH     000FH     UNIT         ?PR?RF_RC_DISABLE?RFA8107
            CODE    CA9BH     000FH     UNIT         ?PR?PROP_INITIALIZE?PROPRIETARY
            CODE    CAAAH     000EH     UNIT         ?PR?PRCSS_L2CAP_CID_SECURITY_MANAGER_PROTOCOL?HOST
            CODE    CAB8H     000EH     UNIT         ?PR?TIMER1PRINIT?PROPRIETARY
            CODE    CAC6H     000DH     UNIT         ?PR?BLE_GETCONNECTSERVERADDRESS?LINKLAYER
            CODE    CAD3H     000CH     UNIT         ?PR?PRCSS_BLE_CODE_SMP_ENCRYPTION_INFORMATION?HOST
            CODE    CADFH     000CH     UNIT         ?PR?INITBLESMP?LINKLAYER
            CODE    CAEBH     000CH     UNIT         ?PR?RANDOMSEEDCOUNT?LINKLAYER
            CODE    CAF7H     000BH     UNIT         ?CO?SECURITY
            CODE    CB02H     000BH     UNIT         ?PR?_SETBLE_ADVPDU?LINKLAYER
            CODE    CB0DH     000BH     UNIT         ?PR?CONNECT_ACK_ENABLE?LINKLAYER
            CODE    CB18H     000BH     UNIT         ?PR?TMR_INTERRUPT_DISABLE?LINKLAYER
            CODE    CB23H     000BH     UNIT         ?PR?CONNECT_ACK_DISABLE?LINKLAYER
            CODE    CB2EH     000BH     UNIT         ?PR?SETBLE_CONNDISSLV?LINKLAYER
            CODE    CB39H     000BH     UNIT         ?PR?SMPPASSKEY_INIT?LINKLAYER
            CODE    CB44H     000AH     UNIT         ?PR?DISABLETIMER0?RFA8107
            CODE    CB4EH     000AH     UNIT         ?PR?DISABLEPRTIMER1?PROPRIETARY
            CODE    CB58H     0009H     UNIT         ?PR?_CHKBLE_ATT_CHR_ACSSRD_BYUSER?APPLICATION_CHECK
            CODE    CB61H     0009H     UNIT         ?PR?BLE_GETWRITEEVENT?HOST
            CODE    CB6AH     0009H     UNIT         ?PR?BLE_GET_ANCS_NOFITICATION_ENVET?HOST
            CODE    CB73H     0009H     UNIT         ?PR?BLE_GETLINKLOSSCOUNT?LINKLAYER
            CODE    CB7CH     0009H     UNIT         ?PR?_CONSUMER_PAIRING_RULE_SELECT?LINKLAYER
            CODE    CB85H     0009H     UNIT         ?PR?RF_GETRSSIRESULT?RFA8107
            CODE    CB8EH     0008H     UNIT         ?PR?_SETBLE_ADVLENGTH?LINKLAYER
            CODE    CB96H     0008H     UNIT         ?PR?TMR_INTERRUPT_ENABLE?LINKLAYER
            CODE    CB9EH     0008H     UNIT         ?PR?_INITCRYSTALCL?RFA8107
            CODE    CBA6H     0007H     UNIT         ?PR?BLE_GETEMPTYCOUNT?LINKLAYER
            CODE    CBADH     0006H     UNIT         ?PR?PRCSS_OPCODE_ATT_READ_MULTIPLE_REQUEST?HOST
            CODE    CBB3H     0006H     UNIT         ?PR?BLE_GETWRITEEVENT_LENGTH?HOST
            CODE    CBB9H     0006H     UNIT         ?PR?BLE_GET_ANCS_NOTIFICATION_LENGTH?HOST
            CODE    CBBFH     0006H     UNIT         ?PR?ADV_ACK_ENABLE?LINKLAYER
            CODE    CBC5H     0006H     UNIT         ?PR?ADV_ACK_DISABLE?LINKLAYER
            CODE    CBCBH     0006H     UNIT         ?PR?BLE_GETPWRSTATE?LINKLAYER
BL51 BANKED LINKER/LOCATER V6.22                                                      05/30/2019  12:42:35  PAGE 13


            CODE    CBD1H     0006H     UNIT         ?PR?BLE_GETWHITELIST_STATUS?LINKLAYER
            CODE    CBD7H     0006H     UNIT         ?PR?BLE_GETDISCONNECTREASON?LINKLAYER
            CODE    CBDDH     0006H     UNIT         ?PR?_STROBECMD?RFA8107
            CODE    CBE3H     0006H     UNIT         ?PR?RF_GETBATTERYRESULT?RFA8107
            CODE    CBE9H     0006H     UNIT         ?PR?RF_GET_PARTIAL_INITRF_RESULT?RFA8107
            CODE    CBEFH     0006H     UNIT         ?PR?PROP_GETRFMODE?PROPRIETARY
            CODE    CBF5H     0003H     UNIT         ?PR?INTERRUPTDISABLE?RFA8107
            CODE    CBF8H     0003H     UNIT         ?PR?INTERRUPTENABLE?RFA8107
            CODE    CBFBH     0003H     UNIT         ?PR?DISABLERXWINS?PROPRIETARY
            CODE    CBFEH     0001H     UNIT         ?PR?PRCSS_OPCODE_ATT_SIGNED_WRITE_COMMAND?HOST
            CODE    CBFFH     0001H     UNIT         ?PR?PRCSS_BLE_CODE_SMP_RESERVED?HOST
            CODE    CC00H     0001H     UNIT         ?PR?PRCSS_BLE_CODE_SMP_PAIRING_RESPONSE?HOST
            CODE    CC01H     0001H     UNIT         ?PR?PRCSS_LL_ENC_RSP?LINKLAYER
            CODE    CC02H     0001H     UNIT         ?PR?PRCSS_LL_UNKNOWN_RSP?LINKLAYER
            CODE    CC03H     0001H     UNIT         ?PR?PRCSS_LL_FEATURE_RSP?LINKLAYER
            CODE    CC04H     0001H     UNIT         ?PR?PRCSS_LL_REJECT_IND?LINKLAYER
            CODE    CC05H     0001H     UNIT         ?PR?PRCSS_LL_SLAVE_FEATURE_REQ?LINKLAYER
            CODE    CC06H     0001H     UNIT         ?PR?PRCSS_LL_CONNECT_PARAM_REQ?LINKLAYER
            CODE    CC07H     0001H     UNIT         ?PR?PRCSS_LL_CONNECT_PARAM_RSP?LINKLAYER
            CODE    CC08H     0001H     UNIT         ?PR?PRCSS_LL_REJECT_IND_EXT?LINKLAYER
            CODE    CC09H     0001H     UNIT         ?PR?PRCSS_LL_PING_REQ?LINKLAYER
            CODE    CC0AH     0001H     UNIT         ?PR?PRCSS_LL_PING_RSP?LINKLAYER
            CODE    CC0BH     0001H     UNIT         ?PR?PRCSS_LL_LENGTH_REQ?LINKLAYER
            CODE    CC0CH     0001H     UNIT         ?PR?PRCSS_LL_LENGTH_RSP?LINKLAYER
                    CC0DH     33F1H                  *** GAP ***
            CODE    FFFEH     0002H     ABSOLUTE     



SYMBOL TABLE OF MODULE:  Proprietary (?C_STARTUP)

  VALUE           TYPE          NAME
  ----------------------------------

  -------         MODULE        ?C_STARTUP
  C:B3CDH         SEGMENT       ?C_C51STARTUP
  I:0030H         SEGMENT       ?STACK
  C:0002H         PUBLIC        ?C_STARTUP
  C:B3CDH         PUBLIC        STARTUP1
  D:00E0H         SYMBOL        ACC
  D:00F0H         SYMBOL        B
  D:0083H         SYMBOL        DPH
  D:0082H         SYMBOL        DPL
  N:007BH         SYMBOL        IAP_PROCESS_ADDRESS
  N:0000H         SYMBOL        IBPSTACK
  N:0100H         SYMBOL        IBPSTACKTOP
  N:0080H         SYMBOL        IDATALEN
  C:B3D0H         SYMBOL        IDATALOOP
  N:0300H         SYMBOL        INTERRUPT_OFFSET
  N:0000H         SYMBOL        PBPSTACK
  N:0100H         SYMBOL        PBPSTACKTOP
  N:0000H         SYMBOL        PDATALEN
  N:0000H         SYMBOL        PDATASTART
  N:0000H         SYMBOL        PPAGE
  N:0000H         SYMBOL        PPAGEENABLE
  D:00A0H         SYMBOL        PPAGE_SFR
  D:0081H         SYMBOL        SP
BL51 BANKED LINKER/LOCATER V6.22                                                      05/30/2019  12:42:35  PAGE 14


  N:0000H         SYMBOL        XBPSTACK
  N:0000H         SYMBOL        XBPSTACKTOP
  N:0000H         SYMBOL        XDATALEN
  N:0000H         SYMBOL        XDATASTART
  C:0002H         LINE#         132
  C:B3CDH         LINE#         139
  C:B3CFH         LINE#         140
  C:B3D0H         LINE#         141
  C:B3D1H         LINE#         142
  C:B3D3H         LINE#         191
  C:B3D6H         LINE#         202
  -------         ENDMOD        ?C_STARTUP

  -------         MODULE        FLASH_CHECK
  N:0000H         SYMBOL        FLASH_CHECK
  -------         ENDMOD        FLASH_CHECK

  -------         MODULE        INTERRUPT_OFFSET
  N:007BH         SYMBOL        IAP_PROCESS_ADDRESS
  N:0300H         SYMBOL        INTERRUPT_OFFSET
  C:000BH         LINE#         5
  C:0013H         LINE#         7
  C:001BH         LINE#         9
  C:0023H         LINE#         11
  C:002BH         LINE#         13
  C:0033H         LINE#         15
  C:003BH         LINE#         17
  C:0043H         LINE#         19
  C:004BH         LINE#         21
  C:0053H         LINE#         23
  C:005BH         LINE#         25
  C:0063H         LINE#         27
  C:006BH         LINE#         29
  C:0073H         LINE#         31
  -------         ENDMOD        INTERRUPT_OFFSET

  -------         MODULE        OTA_IAP
  D:00E0H         SYMBOL        ACC
  N:0038H         SYMBOL        BDCOUNTH
  N:0037H         SYMBOL        BDCOUNTL
  N:0040H         SYMBOL        BUFFER
  D:0094H         SYMBOL        CODEBANK
  D:0083H         SYMBOL        DPH
  D:0082H         SYMBOL        DPL
  D:00E8H         SYMBOL        EIE
  D:0091H         SYMBOL        EIF
  D:009AH         SYMBOL        FLASHCTRL
  D:009BH         SYMBOL        FLASHTMR
  C:021BH         SYMBOL        F_BATTERYDETECT
  C:0221H         SYMBOL        F_BATTERYDETECT_RETRY
  C:0214H         SYMBOL        F_CLRPWE
  C:023CH         SYMBOL        F_DELAY_100US
  C:01D3H         SYMBOL        F_ERASESECTOR
  C:0204H         SYMBOL        F_FLASHCONTROL
  C:01FAH         SYMBOL        F_FLASHSETTING
  C:0178H         SYMBOL        F_READ16BYTES
  C:020DH         SYMBOL        F_SETPWE
BL51 BANKED LINKER/LOCATER V6.22                                                      05/30/2019  12:42:35  PAGE 15


  C:0146H         SYMBOL        F_UPDATE256BYTES
  C:0185H         SYMBOL        F_VERIFY16BYTES
  C:019EH         SYMBOL        F_WRITE16BYTES
  C:019BH         SYMBOL        F_WRITE_A_BYTES
  N:007BH         SYMBOL        IAP_PROCESS_ADDRESS
  D:00A8H         SYMBOL        IE
  N:0300H         SYMBOL        INTERRUPT_OFFSET
  C:007BH         SYMBOL        OTA_BEGIN
  C:0300H         SYMBOL        OTA_END
  D:00D1H         SYMBOL        P0OE
  D:00D2H         SYMBOL        P0PUN
  D:0087H         SYMBOL        PCON
  N:003AH         SYMBOL        READDATA
  D:00BAH         SYMBOL        RSFLAG
  N:0032H         SYMBOL        SOURCEBANK
  N:0030H         SYMBOL        SOURCEDPH
  N:0031H         SYMBOL        SOURCEDPL
  D:0081H         SYMBOL        SP
  D:00EBH         SYMBOL        TA
  N:0035H         SYMBOL        TARGETBANK
  N:0033H         SYMBOL        TARGETDPH
  N:0034H         SYMBOL        TARGETDPL
  N:0039H         SYMBOL        TRYCOUNT
  N:0036H         SYMBOL        UPDATEDPH
  D:00D8H         SYMBOL        WDCON
  C:01BBH         SYMBOL        _CHECK_R3_OTA_DATA2_
  C:01F0H         SYMBOL        _CHECK_R3_OTA_DATA_
  C:01B1H         SYMBOL        _CHECK_WDT2_
  C:01E6H         SYMBOL        _CHECK_WDT_
  C:01F6H         SYMBOL        _ERASESECTOR_START
  C:0236H         SYMBOL        _F_BATTERYDETECT_BDF_0
  C:0239H         SYMBOL        _F_BATTERYDETECT_BDF_1
  C:023EH         SYMBOL        _F_DELAY_100US_LOOP
  C:01F7H         SYMBOL        _F_ERASESECTOR_END
  C:01EEH         SYMBOL        _F_ERASESECTOR_STOP
  C:017CH         SYMBOL        _F_READ16BYTES_LOOP
  C:0175H         SYMBOL        _F_UPDATE256BYTES_FAIL
  C:014AH         SYMBOL        _F_UPDATE256BYTES_LOOP
  C:0172H         SYMBOL        _F_UPDATE256BYTES_PASS
  C:0198H         SYMBOL        _F_VERIFY16BYTES_FAIL
  C:0189H         SYMBOL        _F_VERIFY16BYTES_LOOP
  C:0195H         SYMBOL        _F_VERIFY16BYTES_PASS
  C:01D0H         SYMBOL        _F_WRITE16BYTES_END
  C:01C5H         SYMBOL        _F_WRITE16BYTES_LOOP
  C:01CCH         SYMBOL        _F_WRITE16BYTES_NEXT
  C:01B9H         SYMBOL        _F_WRITE16BYTES_STOP
  C:01CBH         SYMBOL        _F_WRITE16BYTES_WRITE
  C:01C1H         SYMBOL        _F_WRITE_A_BYTES_START
  C:01C1H         SYMBOL        _F_WRITE_START
  C:0099H         SYMBOL        _OTA_BATTERYDETECT
  C:00D5H         SYMBOL        _OTA_PROCESS
  C:00B7H         SYMBOL        _OTA_PROCESS_CHECK_BANK_CODE_LH
  C:00B1H         SYMBOL        _OTA_PROCESS_CHECK_CODE_H
  C:00ACH         SYMBOL        _OTA_PROCESS_CHECK_CODE_L
  C:00CFH         SYMBOL        _OTA_PROCESS_END
  C:00E2H         SYMBOL        _OTA_PROCESS_ERASE
  C:0123H         SYMBOL        _OTA_PROCESS_FAIL
BL51 BANKED LINKER/LOCATER V6.22                                                      05/30/2019  12:42:35  PAGE 16


  C:00D3H         SYMBOL        _OTA_PROCESS_FINISH
  C:00DAH         SYMBOL        _OTA_PROCESS_LOOP
  C:00DDH         SYMBOL        _OTA_PROCESS_LOOP_RETRY
  C:011FH         SYMBOL        _OTA_PROCESS_NEXT
  C:00D3H         SYMBOL        _OTA_PROCESS_RESET
  C:0110H         SYMBOL        _OTA_PROCESS_UPDATE
  C:0101H         SYMBOL        _OTA_PROCESS_UPDATE_0000_7F00
  C:00F3H         SYMBOL        _OTA_PROCESS_UPDATE_8000_FF00
  C:00A9H         SYMBOL        _OTA_START
  C:007BH         LINE#         67
  C:007EH         LINE#         68
  C:0081H         LINE#         69
  C:0084H         LINE#         70
  C:0086H         LINE#         72
  C:0088H         LINE#         73
  C:008AH         LINE#         76
  C:008DH         LINE#         77
  C:008FH         LINE#         78
  C:0090H         LINE#         79
  C:0092H         LINE#         80
  C:0093H         LINE#         83
  C:0096H         LINE#         84
  C:0099H         LINE#         86
  C:009BH         LINE#         87
  C:009DH         LINE#         88
  C:00A0H         LINE#         89
  C:00A2H         LINE#         90
  C:00A4H         LINE#         91
  C:00A7H         LINE#         92
  C:00A9H         LINE#         95
  C:00ACH         LINE#         97
  C:00ADH         LINE#         98
  C:00AEH         LINE#         99
  C:00B1H         LINE#         102
  C:00B3H         LINE#         103
  C:00B4H         LINE#         104
  C:00B7H         LINE#         107
  C:00BAH         LINE#         108
  C:00BDH         LINE#         109
  C:00BEH         LINE#         110
  C:00BFH         LINE#         111
  C:00C2H         LINE#         112
  C:00C4H         LINE#         113
  C:00C5H         LINE#         114
  C:00C8H         LINE#         115
  C:00CAH         LINE#         116
  C:00CDH         LINE#         118
  C:00CFH         LINE#         121
  C:00D1H         LINE#         122
  C:00D3H         LINE#         126
  C:00D5H         LINE#         129
  C:00D7H         LINE#         130
  C:00DAH         LINE#         133
  C:00DDH         LINE#         135
  C:00E0H         LINE#         136
  C:00E2H         LINE#         139
  C:00E5H         LINE#         140
BL51 BANKED LINKER/LOCATER V6.22                                                      05/30/2019  12:42:35  PAGE 17


  C:00E8H         LINE#         141
  C:00EAH         LINE#         142
  C:00ECH         LINE#         148
  C:00EEH         LINE#         149
  C:00EFH         LINE#         150
  C:00F1H         LINE#         151
  C:00F3H         LINE#         154
  C:00F6H         LINE#         155
  C:00F9H         LINE#         156
  C:00FCH         LINE#         157
  C:00FFH         LINE#         158
  C:0101H         LINE#         161
  C:0104H         LINE#         162
  C:0106H         LINE#         163
  C:0108H         LINE#         164
  C:010AH         LINE#         165
  C:010DH         LINE#         166
  C:0110H         LINE#         169
  C:0112H         LINE#         170
  C:0114H         LINE#         172
  C:0116H         LINE#         173
  C:0119H         LINE#         174
  C:011BH         LINE#         175
  C:011DH         LINE#         176
  C:011FH         LINE#         179
  C:0121H         LINE#         180
  C:0123H         LINE#         183
  C:0125H         LINE#         184
  C:0127H         LINE#         185
  C:012AH         LINE#         186
  C:012DH         LINE#         187
  C:012FH         LINE#         188
  C:0130H         LINE#         189
  C:0132H         LINE#         190
  C:0135H         LINE#         191
  C:0138H         LINE#         192
  C:013BH         LINE#         193
  C:013EH         LINE#         194
  C:0140H         LINE#         195
  C:0142H         LINE#         196
  C:0144H         LINE#         197
  C:0146H         LINE#         205
  C:0148H         LINE#         206
  C:014AH         LINE#         209
  C:014DH         LINE#         210
  C:014FH         LINE#         211
  C:0152H         LINE#         212
  C:0154H         LINE#         214
  C:0157H         LINE#         215
  C:0159H         LINE#         216
  C:015CH         LINE#         217
  C:015EH         LINE#         218
  C:0160H         LINE#         220
  C:0163H         LINE#         221
  C:0165H         LINE#         222
  C:0168H         LINE#         223
  C:016AH         LINE#         224
BL51 BANKED LINKER/LOCATER V6.22                                                      05/30/2019  12:42:35  PAGE 18


  C:016CH         LINE#         226
  C:016DH         LINE#         227
  C:016FH         LINE#         228
  C:0170H         LINE#         230
  C:0172H         LINE#         232
  C:0174H         LINE#         233
  C:0175H         LINE#         235
  C:0177H         LINE#         236
  C:0178H         LINE#         243
  C:017AH         LINE#         244
  C:017CH         LINE#         246
  C:017EH         LINE#         247
  C:017FH         LINE#         248
  C:0180H         LINE#         249
  C:0181H         LINE#         250
  C:0182H         LINE#         251
  C:0184H         LINE#         252
  C:0185H         LINE#         259
  C:0187H         LINE#         260
  C:0189H         LINE#         262
  C:018BH         LINE#         263
  C:018DH         LINE#         264
  C:018EH         LINE#         265
  C:0191H         LINE#         266
  C:0192H         LINE#         267
  C:0193H         LINE#         268
  C:0195H         LINE#         270
  C:0197H         LINE#         271
  C:0198H         LINE#         274
  C:019AH         LINE#         275
  C:019BH         LINE#         282
  C:019CH         LINE#         283
  C:019EH         LINE#         290
  C:01A0H         LINE#         291
  C:01A2H         LINE#         293
  C:01A4H         LINE#         294
  C:01A5H         LINE#         295
  C:01A7H         LINE#         296
  C:01A9H         LINE#         298
  C:01ABH         LINE#         299
  C:01ADH         LINE#         300
  C:01AFH         LINE#         302
  C:01B1H         LINE#         305
  C:01B3H         LINE#         306
  C:01B5H         LINE#         307
  C:01B7H         LINE#         308
  C:01B9H         LINE#         311
  C:01BBH         LINE#         314
  C:01BDH         LINE#         315
  C:01BEH         LINE#         316
  C:01BFH         LINE#         317
  C:01C1H         LINE#         321
  C:01C3H         LINE#         322
  C:01C5H         LINE#         324
  C:01C6H         LINE#         325
  C:01C9H         LINE#         326
  C:01CBH         LINE#         328
BL51 BANKED LINKER/LOCATER V6.22                                                      05/30/2019  12:42:35  PAGE 19


  C:01CCH         LINE#         330
  C:01CDH         LINE#         331
  C:01CEH         LINE#         332
  C:01D0H         LINE#         335
  C:01D2H         LINE#         336
  C:01D3H         LINE#         342
  C:01D5H         LINE#         343
  C:01D7H         LINE#         345
  C:01D9H         LINE#         346
  C:01DAH         LINE#         347
  C:01DCH         LINE#         348
  C:01DEH         LINE#         350
  C:01E0H         LINE#         351
  C:01E2H         LINE#         352
  C:01E4H         LINE#         353
  C:01E6H         LINE#         356
  C:01E8H         LINE#         357
  C:01EAH         LINE#         358
  C:01ECH         LINE#         359
  C:01EEH         LINE#         362
  C:01F0H         LINE#         365
  C:01F2H         LINE#         366
  C:01F3H         LINE#         367
  C:01F4H         LINE#         368
  C:01F6H         LINE#         371
  C:01F7H         LINE#         373
  C:01F9H         LINE#         374
  C:01FAH         LINE#         380
  C:01FDH         LINE#         381
  C:0200H         LINE#         382
  C:0203H         LINE#         383
  C:0204H         LINE#         389
  C:0207H         LINE#         390
  C:020AH         LINE#         391
  C:020CH         LINE#         392
  C:020DH         LINE#         398
  C:020FH         LINE#         399
  C:0211H         LINE#         400
  C:0213H         LINE#         401
  C:0214H         LINE#         407
  C:0216H         LINE#         408
  C:0218H         LINE#         409
  C:021AH         LINE#         410
  C:021BH         LINE#         423
  C:021EH         LINE#         424
  C:0220H         LINE#         425
  C:0221H         LINE#         427
  C:0224H         LINE#         428
  C:0226H         LINE#         429
  C:0227H         LINE#         431
  C:022AH         LINE#         432
  C:022CH         LINE#         433
  C:022DH         LINE#         435
  C:022FH         LINE#         436
  C:0230H         LINE#         437
  C:0233H         LINE#         438
  C:0236H         LINE#         440
BL51 BANKED LINKER/LOCATER V6.22                                                      05/30/2019  12:42:35  PAGE 20


  C:0238H         LINE#         441
  C:0239H         LINE#         443
  C:023BH         LINE#         444
  C:023CH         LINE#         453
  C:023EH         LINE#         455
  C:023FH         LINE#         456
  C:0240H         LINE#         457
  C:0242H         LINE#         458
  C:0300H         LINE#         466
  -------         ENDMOD        OTA_IAP

  -------         MODULE        SERVICEGEN
  C:0000H         SYMBOL        _ICE_DUMMY_
  C:5B2CH         PUBLIC        ATT_PERMISSION_HDL_GAP_APPEARANCE
  C:5B4CH         PUBLIC        ATT_PERMISSION_HDL_OTA_OTA_DATA_CLIENT_CHARACTERISTIC_CONFIGURATION_INIT
  C:5A25H         PUBLIC        ATT_HDL_OTA_DATA_ERROR_STATUS_CLIENT_CHARACTERISTIC_CONFIGURATION_INIT
  C:5844H         PUBLIC        ATT_HDL_GAP_CHARACTERISTIC_APPEARANCE
  C:5B3CH         PUBLIC        ATT_PERMISSION_HDL_DIS_MANUFACTURER_NAME_STRING
  C:58D8H         PUBLIC        ATT_HDL_DIS_CHARACTERISTIC_MANUFACTURER_NAME_STRING
  C:5833H         PUBLIC        ATT_HDL_GAP_DEVICE_NAME_INIT
  X:07A6H         PUBLIC        att_HDL_OTA_OTA_CMD_CONTROL_POINT_CLIENT_CHARACTERISTIC_CONFIGURATION
  C:5B3EH         PUBLIC        ATT_PERMISSION_HDL_DIS_SYSTEM_ID
  X:07A8H         PUBLIC        att_HDL_OTA_OTA_DATA
  C:5900H         PUBLIC        ATT_HDL_DIS_CHARACTERISTIC_SYSTEM_ID
  C:5B36H         PUBLIC        ATT_PERMISSION_HDL_GATT_CLIENT_CHARACTERISTIC_CONFIGURATION_INIT
  C:5B42H         PUBLIC        ATT_PERMISSION_HDL_DIS_MODEL_NUMBER_STRING
  X:07BCH         PUBLIC        att_HDL_BAS_CLIENT_CHARACTERISTIC_CONFIGURATION
  C:58A2H         PUBLIC        ATT_HDL_GATT_SERVICE_CHANGED_INIT
  C:5820H         PUBLIC        ATT_HDL_INVALID
  C:5936H         PUBLIC        ATT_HDL_DIS_CHARACTERISTIC_MODEL_NUMBER_STRING
  C:5B48H         PUBLIC        ATT_PERMISSION_HDL_DIS_PNP_ID
  C:5A60H         PUBLIC        ATT_HDL_USER_DEFINE_01_PRIMARY_SERVICE
  C:584EH         PUBLIC        ATT_HDL_GAP_APPEARANCE
  C:59D4H         PUBLIC        ATT_HDL_OTA_OTA_DATA_CLIENT_CHARACTERISTIC_CONFIGURATION_INIT
  C:5994H         PUBLIC        ATT_HDL_DIS_CHARACTERISTIC_PNP_ID
  C:5B44H         PUBLIC        ATT_PERMISSION_HDL_DIS_HARDWARE_REVISION_STRING
  X:07BEH         PUBLIC        att_HDL_BAS_BATTERY_LEVEL
  X:07BFH         PUBLIC        att_HDL_GAP_RECONNECTION_ADDRESS
  C:5957H         PUBLIC        ATT_HDL_DIS_CHARACTERISTIC_HARDWARE_REVISION_STRING
  C:58E2H         PUBLIC        ATT_HDL_DIS_MANUFACTURER_NAME_STRING
  C:5B30H         PUBLIC        ATT_PERMISSION_HDL_GAP_PERIPHERAL_PRIVACY_FLAG
  C:59B1H         PUBLIC        ATT_HDL_OTA_CHARACTERISTIC_OTA_DATA
  C:590AH         PUBLIC        ATT_HDL_DIS_SYSTEM_ID
  C:586AH         PUBLIC        ATT_HDL_GAP_CHARACTERISTIC_PERIPHERAL_PRIVACY_FLAG
  C:5B56H         PUBLIC        ATT_PERMISSION_HDL_OTA_DATA_ERROR_STATUS_INIT
  C:5B54H         PUBLIC        ATT_PERMISSION_HDL_OTA_OTA_CMD_USER_DESCRIPTION
  C:58CCH         PUBLIC        ATT_HDL_DIS_SERIAL_NUMBER_STRING_PRESENTATION_FORMAT
  C:58ABH         PUBLIC        ATT_HDL_GATT_CLIENT_CHARACTERISTIC_CONFIGURATION_INIT
  C:5940H         PUBLIC        ATT_HDL_DIS_MODEL_NUMBER_STRING
  X:07C5H         PUBLIC        att_HDL_USER_DEFINE_01_DATAN01
  C:599EH         PUBLIC        ATT_HDL_DIS_PNP_ID
  X:07D9H         PUBLIC        att_HDL_USER_DEFINE_01_DATAN02
  C:5B40H         PUBLIC        ATT_PERMISSION_HDL_DIS_FIRMWARE_REVISION_STRING
  C:5A49H         PUBLIC        ATT_HDL_BAS_CHARACTERISTIC_BATTERY_LEVEL
  C:5961H         PUBLIC        ATT_HDL_DIS_HARDWARE_REVISION_STRING
  C:5917H         PUBLIC        ATT_HDL_DIS_CHARACTERISTIC_FIRMWARE_REVISION_STRING
  C:5855H         PUBLIC        ATT_HDL_GAP_CHARACTERISTIC_RECONNECTION_ADDRESS
BL51 BANKED LINKER/LOCATER V6.22                                                      05/30/2019  12:42:35  PAGE 21


  C:5A8AH         PUBLIC        ATT_HDL_USER_DEFINE_01_DATAN01_CLIENT_CHARACTERISTIC_CONFIGURATION_INIT
  C:5AD7H         PUBLIC        ATT_HDL_USER_DEFINE_01_DATAN02_CLIENT_CHARACTERISTIC_CONFIGURATION_INIT
  X:07EDH         PUBLIC        att_HDL_USER_DEFINE_01_DATAW01
  X:0801H         PUBLIC        att_HDL_USER_DEFINE_01_DATAW02
  C:5874H         PUBLIC        ATT_HDL_GAP_PERIPHERAL_PRIVACY_FLAG
  C:5B52H         PUBLIC        ATT_PERMISSION_HDL_OTA_OTA_CMD_CP_CLIENT_CHARACTERISTIC_CONFIGURATION_INIT
  C:5B4AH         PUBLIC        ATT_PERMISSION_HDL_OTA_OTA_DATA_INIT
  C:5A06H         PUBLIC        ATT_HDL_OTA_OTA_CMD_USER_DESCRIPTION
  C:5A1CH         PUBLIC        ATT_HDL_OTA_DATA_ERROR_STATUS_INIT
  C:5B46H         PUBLIC        ATT_PERMISSION_HDL_DIS_SOFTWARE_REVISION_STRING
  C:5A67H         PUBLIC        ATT_HDL_USER_DEFINE_01_CHARACTERISTIC_DATAN01
  C:5B5EH         PUBLIC        ATT_PERMISSION_HDL_BAS_CLIENT_CHARACTERISTIC_CONFIGURATION_INIT
  C:5AB4H         PUBLIC        ATT_HDL_USER_DEFINE_01_CHARACTERISTIC_DATAN02
  C:5891H         PUBLIC        ATT_HDL_GATT_PRIMARY_SERVICE
  C:5B6CH         PUBLIC        ATT_PERMISSION_HDL_USER_DEFINE_01_DATAR01
  C:5975H         PUBLIC        ATT_HDL_DIS_CHARACTERISTIC_SOFTWARE_REVISION_STRING
  C:5921H         PUBLIC        ATT_HDL_DIS_FIRMWARE_REVISION_STRING
  C:5B01H         PUBLIC        ATT_HDL_USER_DEFINE_01_CHARACTERISTIC_DATAR01
  X:0815H         PUBLIC        att_HDL_OTA_OTA_CMD_CONTROL_POINT
  C:5B5CH         PUBLIC        ATT_PERMISSION_HDL_BAS_BATTERY_LEVEL_INIT
  C:5B2EH         PUBLIC        ATT_PERMISSION_HDL_GAP_RECONNECTION_ADDRESS_INIT
  C:5A91H         PUBLIC        ATT_HDL_USER_DEFINE_01_CHARACTERISTIC_DATAW01
  C:5ADEH         PUBLIC        ATT_HDL_USER_DEFINE_01_CHARACTERISTIC_DATAW02
  C:59FFH         PUBLIC        ATT_HDL_OTA_OTA_CMD_CONTROL_POINT_CLIENT_CHARACTERISTIC_CONFIGURATION_INIT
  C:59BBH         PUBLIC        ATT_HDL_OTA_OTA_DATA_INIT
  C:597FH         PUBLIC        ATT_HDL_DIS_SOFTWARE_REVISION_STRING
  C:5B4EH         PUBLIC        ATT_PERMISSION_HDL_OTA_OTA_DATA_DESCRIPTION
  C:5A59H         PUBLIC        ATT_HDL_BAS_CLIENT_CHARACTERISTIC_CONFIGURATION_INIT
  C:5B0BH         PUBLIC        ATT_HDL_USER_DEFINE_01_DATAR01
  C:5B60H         PUBLIC        ATT_PERMISSION_HDL_USER_DEFINE_01_DATAN01_INIT
  C:58F4H         PUBLIC        ATT_HDL_DIS_MANUFACTURER_NAME_STRING_PRESENTATION_FORMAT
  C:57E0H         PUBLIC        ADV_DATA_INITIAL
  C:5B66H         PUBLIC        ATT_PERMISSION_HDL_USER_DEFINE_01_DATAN02_INIT
  C:59E8H         PUBLIC        ATT_HDL_OTA_CHARACTERISTIC_OTA_CMD_CONTROL_POINT
  C:5B28H         PUBLIC        ATT_PERMISSION_CHARACTERISTIC
  C:5A53H         PUBLIC        ATT_HDL_BAS_BATTERY_LEVEL_INIT
  C:585FH         PUBLIC        ATT_HDL_GAP_RECONNECTION_ADDRESS_INIT
  C:5D53H         PUBLIC        ATTRIBUTE_SERVER_BOND_PARAM
  X:081DH         PUBLIC        att_HDL_OTA_DATA_ERROR_STATUS_CLIENT_CHARACTERISTIC_CONFIGURATION
  C:5B64H         PUBLIC        ATT_PERMISSION_HDL_USER_DEFINE_01_DATAW01_INIT
  C:594BH         PUBLIC        ATT_HDL_DIS_MODEL_NUMBER_STRING_PRESENTATION_FORMAT
  C:5B6AH         PUBLIC        ATT_PERMISSION_HDL_USER_DEFINE_01_DATAW02_INIT
  C:5A12H         PUBLIC        ATT_HDL_OTA_CHARACTERISTIC_OTA_DATA_ERROR_STATUS
  C:5B32H         PUBLIC        ATT_PERMISSION_HDL_GAP_PERIPHERAL_PREFERRED_CONNECTION_PARAMETERS
  C:587AH         PUBLIC        ATT_HDL_GAP_CHARACTERISTIC_PERIPHERAL_PREFERRED_CONNECTION_PARAMETERS
  C:5B5AH         PUBLIC        ATT_PERMISSION_HDL_OTA_DATA_ERROR_STATUS_USER_DESCRIPTION
  X:081FH         PUBLIC        att_HDL_GAP_DEVICE_NAME
  C:59DBH         PUBLIC        ATT_HDL_OTA_OTA_DATA_DESCRIPTION
  C:5969H         PUBLIC        ATT_HDL_DIS_HARDWARE_REVISION_STRING_PRESENTATION_FORMAT
  C:5B26H         PUBLIC        ATT_PERMISSION_PRIMARY_SERVICE
  C:5A71H         PUBLIC        ATT_HDL_USER_DEFINE_01_DATAN01_INIT
  C:5A42H         PUBLIC        ATT_HDL_BAS_PRIMARY_SERVICE
  C:5ABEH         PUBLIC        ATT_HDL_USER_DEFINE_01_DATAN02_INIT
  X:082BH         PUBLIC        att_HDL_GATT_SERVICE_CHANGED
  C:5822H         PUBLIC        ATT_HDL_GAP_PRIMARY_SERVICE
  C:5B62H         PUBLIC        ATT_PERMISSION_HDL_USER_DEFINE_01_DATAN01_CLIENT_CHARACT_CONFIG_INIT
  C:5B50H         PUBLIC        ATT_PERMISSION_HDL_OTA_OTA_CMD_CONTROL_POINT_INIT
BL51 BANKED LINKER/LOCATER V6.22                                                      05/30/2019  12:42:35  PAGE 22


  C:5B68H         PUBLIC        ATT_PERMISSION_HDL_USER_DEFINE_01_DATAN02_CLIENT_CHARACT_CONFIG_INIT
  C:5B38H         PUBLIC        ATT_PERMISSION_HDL_DIS_SERIAL_NUMBER_STRING
  X:082FH         PUBLIC        att_HDL_OTA_OTA_DATA_CLIENT_CHARACTERISTIC_CONFIGURATION
  C:5A9BH         PUBLIC        ATT_HDL_USER_DEFINE_01_DATAW01_INIT
  C:58B9H         PUBLIC        ATT_HDL_DIS_CHARACTERISTIC_SERIAL_NUMBER_STRING
  C:5AE8H         PUBLIC        ATT_HDL_USER_DEFINE_01_DATAW02_INIT
  C:58B2H         PUBLIC        ATT_HDL_DIS_PRIMARY_SERVICE
  C:5884H         PUBLIC        ATT_HDL_GAP_PERIPHERAL_PREFERRED_CONNECTION_PARAMETERS
  C:5CC7H         PUBLIC        ATTRIBUTE_SERVER_PERMISSION
  C:592AH         PUBLIC        ATT_HDL_DIS_FIRMWARE_REVISION_STRING_PRESENTATION_FORMAT
  C:5829H         PUBLIC        ATT_HDL_GAP_CHARACTERISTIC_DEVICE_NAME
  C:5800H         PUBLIC        SCAN_RESPONSE_DATA_INITIAL
  C:5A2CH         PUBLIC        ATT_HDL_OTA_DATA_ERROR_STATUS_USER_DESCRIPTION
  C:59AAH         PUBLIC        ATT_HDL_OTA_PRIMARY_SERVICE
  C:5BF8H         PUBLIC        ATTRIBUTE_SERVER_param
  X:0831H         PUBLIC        att_HDL_GATT_CLIENT_CHARACTERISTIC_CONFIGURATION
  C:5898H         PUBLIC        ATT_HDL_GATT_CHARACTERISTIC_SERVICE_CHANGED
  C:59F2H         PUBLIC        ATT_HDL_OTA_OTA_CMD_CONTROL_POINT_INIT
  C:58C3H         PUBLIC        ATT_HDL_DIS_SERIAL_NUMBER_STRING
  C:5B58H         PUBLIC        ATT_PERMISSION_HDL_OTA_DATA_ERROR_STATUS_CLIENT_CHARACTERISTIC_CONFIGURATION_INIT
  C:5988H         PUBLIC        ATT_HDL_DIS_SOFTWARE_REVISION_STRING_PRESENTATION_FORMAT
  C:5B6EH         PUBLIC        ATTRIBUTE_SERVER
  X:0833H         PUBLIC        att_HDL_USER_DEFINE_01_DATAN01_CLIENT_CHARACTERISTIC_CONFIGURATION
  X:0835H         PUBLIC        att_HDL_USER_DEFINE_01_DATAN02_CLIENT_CHARACTERISTIC_CONFIGURATION
  C:5B24H         PUBLIC        ATT_PERMISSION_NULL
  C:5B2AH         PUBLIC        ATT_PERMISSION_HDL_GAP_DEVICE_NAME_INIT
  C:5D51H         PUBLIC        ATTRIBUTE_SERVER_BOND
  C:5B3AH         PUBLIC        ATT_PERMISSION_CHARACTERISTIC_PRESENTATION_FORMAT
  X:0837H         PUBLIC        att_HDL_OTA_DATA_ERROR_STATUS
  C:5B34H         PUBLIC        ATT_PERMISSION_HDL_GATT_SERVICE_CHANGED_INIT
  -------         ENDMOD        SERVICEGEN

  -------         MODULE        SECURITY
  C:0000H         SYMBOL        _ICE_DUMMY_
  C:CAF7H         PUBLIC        RSP_PAIRING_REQUEST
  -------         ENDMOD        SECURITY

  -------         MODULE        APPLICATION_CHECK
  C:0000H         SYMBOL        _ICE_DUMMY_
  C:CB58H         PUBLIC        _ChkBLE_ATT_Chr_AcssRd_ByUser
  C:C995H         PUBLIC        _ChkBLE_ATT_Chr_AcssWr_ByUser
  -------         PROC          _CHKBLE_ATT_CHR_ACSSRD_BYUSER
  D:0001H         SYMBOL        AddrAttHandle
  -------         DO            
  D:0007H         SYMBOL        Rsp_Error
  X:0B25H         SYMBOL        p
  -------         ENDDO         
  C:CB58H         LINE#         19
  C:CB58H         LINE#         20
  C:CB58H         LINE#         24
  C:CB5AH         LINE#         27
  C:CB60H         LINE#         44
  C:CB60H         LINE#         45
  -------         ENDPROC       _CHKBLE_ATT_CHR_ACSSRD_BYUSER
  -------         PROC          _CHKBLE_ATT_CHR_ACSSWR_BYUSER
  D:0001H         SYMBOL        AddrAttHandle
  X:0A53H         SYMBOL        wrDataBuf
BL51 BANKED LINKER/LOCATER V6.22                                                      05/30/2019  12:42:35  PAGE 23


  -------         DO            
  D:0007H         SYMBOL        Rsp_Error
  X:0A56H         SYMBOL        p
  -------         ENDDO         
  C:C995H         LINE#         53
  C:C995H         LINE#         54
  C:C995H         LINE#         58
  C:C997H         LINE#         61
  C:C99DH         LINE#         62
  C:C9A9H         LINE#         78
  C:C9A9H         LINE#         79
  -------         ENDPROC       _CHKBLE_ATT_CHR_ACSSWR_BYUSER
  -------         ENDMOD        APPLICATION_CHECK

  -------         MODULE        INTERRUPT_24G
  C:0000H         SYMBOL        _ICE_DUMMY_
  C:5235H         PUBLIC        Uart0Isr
  D:0080H         PUBLIC        P0
  D:0090H         PUBLIC        P1
  C:523BH         PUBLIC        SleepTimer1_ISR
  D:00A0H         PUBLIC        P2
  D:00B0H         PUBLIC        P3
  C:51C2H         PUBLIC        Timer1_ISR
  C:5237H         PUBLIC        Timer2_ISR
  C:523FH         PUBLIC        RFISR
  D:00A8H         PUBLIC        IE
  D:00B8H         PUBLIC        IP
  D:0087H         PUBLIC        PCON
  D:0098H         PUBLIC        SCON
  D:0088H         PUBLIC        TCON
  C:523DH         PUBLIC        RTC_ISR
  D:00E8H         PUBLIC        EIE
  D:0091H         PUBLIC        EIF
  C:52A7H         PUBLIC        KeyINT_ISR
  D:00C8H         PUBLIC        T2CON
  C:51C0H         PUBLIC        INT1_ISR
  C:5239H         PUBLIC        INT2_ISR
  D:00D0H         PUBLIC        PSW
  -------         PROC          INT1_ISR
  C:51C0H         LINE#         25
  C:51C0H         LINE#         28
  C:51C1H         LINE#         29
  -------         ENDPROC       INT1_ISR
  -------         PROC          TIMER1_ISR
  C:51C2H         LINE#         34
  C:51E4H         LINE#         37
  C:51EAH         LINE#         38
  C:51EAH         LINE#         39
  C:51F0H         LINE#         40
  C:51F4H         LINE#         42
  C:51F7H         LINE#         43
  C:51F9H         LINE#         45
  C:51F9H         LINE#         46
  C:5203H         LINE#         47
  C:520FH         LINE#         49
  C:5212H         LINE#         50
  C:5212H         LINE#         51
BL51 BANKED LINKER/LOCATER V6.22                                                      05/30/2019  12:42:35  PAGE 24


  -------         ENDPROC       TIMER1_ISR
  -------         PROC          UART0ISR
  C:5235H         LINE#         56
  C:5235H         LINE#         59
  C:5236H         LINE#         60
  -------         ENDPROC       UART0ISR
  -------         PROC          TIMER2_ISR
  C:5237H         LINE#         65
  C:5237H         LINE#         68
  C:5238H         LINE#         69
  -------         ENDPROC       TIMER2_ISR
  -------         PROC          INT2_ISR
  C:5239H         LINE#         74
  C:5239H         LINE#         77
  C:523AH         LINE#         78
  -------         ENDPROC       INT2_ISR
  -------         PROC          SLEEPTIMER1_ISR
  C:523BH         LINE#         83
  C:523BH         LINE#         86
  C:523CH         LINE#         87
  -------         ENDPROC       SLEEPTIMER1_ISR
  -------         PROC          RTC_ISR
  C:523DH         LINE#         92
  C:523DH         LINE#         95
  C:523EH         LINE#         96
  -------         ENDPROC       RTC_ISR
  -------         PROC          RFISR
  C:523FH         LINE#         101
  C:5261H         LINE#         103
  C:5264H         LINE#         104
  C:5267H         LINE#         106
  C:526EH         LINE#         107
  C:526EH         LINE#         108
  C:5271H         LINE#         109
  C:5271H         LINE#         112
  C:5278H         LINE#         113
  C:5278H         LINE#         114
  C:5282H         LINE#         115
  C:5284H         LINE#         116
  C:5284H         LINE#         118
  -------         ENDPROC       RFISR
  -------         PROC          KEYINT_ISR
  C:52A7H         LINE#         123
  C:52A7H         LINE#         126
  C:52A8H         LINE#         127
  -------         ENDPROC       KEYINT_ISR
  -------         ENDMOD        INTERRUPT_24G

  -------         MODULE        MAIN_24G
  C:0000H         SYMBOL        _ICE_DUMMY_
  D:0080H         PUBLIC        P0
  C:530AH         PUBLIC        EnableTimer1
  D:0090H         PUBLIC        P1
  C:52A9H         PUBLIC        _WriteTxFIFO
  D:00A0H         PUBLIC        P2
  D:00B0H         PUBLIC        P3
  D:00A8H         PUBLIC        IE
BL51 BANKED LINKER/LOCATER V6.22                                                      05/30/2019  12:42:35  PAGE 25


  B:0080H.4       PUBLIC        P0_4
  D:00B8H         PUBLIC        IP
  C:534EH         PUBLIC        main
  X:0AC5H         PUBLIC        Auto24G_Mode
  X:0AC6H         PUBLIC        Timer1Flag
  C:5315H         PUBLIC        _Set_Timer1_N_ms
  D:0098H         PUBLIC        SCON
  D:0088H         PUBLIC        TCON
  C:C8DBH         SYMBOL        _?ix1000
  C:C8DFH         SYMBOL        _?ix1001
  B:00A8H.3       PUBLIC        ET1
  X:0AC7H         PUBLIC        fast_adv
  D:008DH         PUBLIC        TH1
  D:008BH         PUBLIC        TL1
  D:00E8H         PUBLIC        EIE
  B:0088H.6       PUBLIC        TR1
  X:0AC8H         PUBLIC        Timer1Cnt
  D:00C8H         PUBLIC        T2CON
  C:5300H         PUBLIC        DisableTimer1
  C:52D4H         PUBLIC        _ReadRxFIFO
  D:00D0H         PUBLIC        PSW
  C:5798H         SYMBOL        Com006B
  C:5798H         SYMBOL        L?0108
  C:5798H         SYMBOL        L?0109
  C:57A1H         SYMBOL        L?0110
  C:57A4H         SYMBOL        L?0111
  C:57AAH         SYMBOL        L?0114
  C:57BBH         SYMBOL        L?0115
  C:57BBH         SYMBOL        L?0116
  C:57C2H         SYMBOL        L?0117
  C:57C2H         SYMBOL        L?0118
  C:57CAH         SYMBOL        L?0119
  C:57CAH         SYMBOL        L?0120
  C:57D0H         SYMBOL        L?0121
  C:57D9H         SYMBOL        L?0122
  C:57D9H         SYMBOL        L?0123
  -------         PROC          COM006B
  -------         ENDPROC       COM006B
  -------         PROC          _WRITETXFIFO
  X:0B28H         SYMBOL        pu8Data
  D:0005H         SYMBOL        u8Len
  -------         DO            
  D:0007H         SYMBOL        i
  -------         ENDDO         
  C:52A9H         LINE#         24
  C:52AFH         LINE#         25
  C:52AFH         LINE#         28
  C:52B6H         LINE#         29
  C:52B6H         LINE#         30
  C:52D0H         LINE#         31
  C:52D3H         LINE#         32
  -------         ENDPROC       _WRITETXFIFO
  -------         PROC          _READRXFIFO
  X:0B2BH         SYMBOL        pu8Data
  D:0005H         SYMBOL        u8Len
  -------         DO            
  D:0007H         SYMBOL        i
BL51 BANKED LINKER/LOCATER V6.22                                                      05/30/2019  12:42:35  PAGE 26


  -------         ENDDO         
  C:52D4H         LINE#         34
  C:52DAH         LINE#         35
  C:52DAH         LINE#         38
  C:52E1H         LINE#         39
  C:52FFH         LINE#         40
  -------         ENDPROC       _READRXFIFO
  -------         PROC          DISABLETIMER1
  C:5300H         LINE#         46
  C:5300H         LINE#         47
  C:5300H         LINE#         48
  C:5305H         LINE#         49
  C:5307H         LINE#         50
  C:5309H         LINE#         51
  -------         ENDPROC       DISABLETIMER1
  -------         PROC          ENABLETIMER1
  C:530AH         LINE#         57
  C:530AH         LINE#         58
  C:530AH         LINE#         59
  C:5310H         LINE#         60
  C:5312H         LINE#         61
  C:5314H         LINE#         62
  -------         ENDPROC       ENABLETIMER1
  -------         PROC          _SET_TIMER1_N_MS
  D:0007H         SYMBOL        value
  -------         DO            
  X:0AEDH         SYMBOL        t
  -------         ENDDO         
  C:5315H         LINE#         67
  C:5315H         LINE#         68
  C:5315H         LINE#         71
  C:5324H         LINE#         73
  C:532DH         LINE#         74
  C:533BH         LINE#         75
  C:534BH         LINE#         76
  -------         ENDPROC       _SET_TIMER1_N_MS
  C:56E3H         SYMBOL        L?0102
  C:5722H         SYMBOL        L?0103
  C:5739H         SYMBOL        L?0104
  C:574EH         SYMBOL        L?0105
  C:576BH         SYMBOL        L?0106
  C:577AH         SYMBOL        L?0112
  C:578CH         SYMBOL        L?0113
  -------         PROC          MAIN
  -------         DO            
  X:089AH         SYMBOL        ADV_InitStructure
  X:08A4H         SYMBOL        Temp
  X:08A5H         SYMBOL        UpdateOTASpeed
  X:08A6H         SYMBOL        DataLen
  X:08A7H         SYMBOL        AdvFastSpeed
  X:08A8H         SYMBOL        ptrChar
  X:08AAH         SYMBOL        Time_value
  X:08ACH         SYMBOL        pvHandle
  X:08AFH         SYMBOL        Prop_ID
  X:08B3H         SYMBOL        Prop_Tx
  X:08C7H         SYMBOL        Prop_Rx
  X:08DBH         SYMBOL        PropParm
BL51 BANKED LINKER/LOCATER V6.22                                                      05/30/2019  12:42:35  PAGE 27


  -------         ENDDO         
  C:534EH         LINE#         87
  C:534EH         LINE#         88
  C:534EH         LINE#         94
  C:5354H         LINE#         95
  C:5359H         LINE#         99
  C:5362H         LINE#         100
  C:536FH         LINE#         101
  C:537CH         LINE#         107
  C:5381H         LINE#         109
  C:5384H         LINE#         110
  C:5387H         LINE#         111
  C:5389H         LINE#         113
  C:538EH         LINE#         115
  C:5393H         LINE#         117
  C:539BH         LINE#         118
  C:539BH         LINE#         120
  C:539BH         LINE#         122
  C:539EH         LINE#         123
  C:53A1H         LINE#         125
  C:53A4H         LINE#         126
  C:53A9H         LINE#         127
  C:53ACH         LINE#         129
  C:53AFH         LINE#         130
  C:53BBH         LINE#         131
  C:53C1H         LINE#         132
  C:53C3H         LINE#         133
  C:53C6H         LINE#         134
  C:53CAH         LINE#         135
  C:53CEH         LINE#         136
  C:53DFH         LINE#         137
  C:53EBH         LINE#         139
  C:53F1H         LINE#         141
  C:53F1H         LINE#         142
  C:53F1H         LINE#         143
  C:53F4H         LINE#         147
  C:53FDH         LINE#         148
  C:53FDH         LINE#         149
  C:5403H         LINE#         150
  C:5403H         LINE#         151
  C:5403H         LINE#         152
  C:5403H         LINE#         153
  C:5409H         LINE#         154
  C:5409H         LINE#         155
  C:540CH         LINE#         157
  C:540CH         LINE#         158
  C:540CH         LINE#         160
  C:540CH         LINE#         161
  C:540FH         LINE#         163
  C:540FH         LINE#         164
  C:540FH         LINE#         165
  C:540FH         LINE#         166
  C:5415H         LINE#         167
  C:5421H         LINE#         169
  C:5421H         LINE#         170
  C:5421H         LINE#         171
  C:5427H         LINE#         172
BL51 BANKED LINKER/LOCATER V6.22                                                      05/30/2019  12:42:35  PAGE 28


  C:542EH         LINE#         173
  C:5431H         LINE#         175
  C:543EH         LINE#         176
  C:5441H         LINE#         177
  C:5448H         LINE#         178
  C:544DH         LINE#         180
  C:544DH         LINE#         181
  C:5450H         LINE#         182
  C:5450H         LINE#         183
  C:5450H         LINE#         184
  C:5450H         LINE#         185
  C:5453H         LINE#         186
  C:5459H         LINE#         187
  C:5459H         LINE#         188
  C:545CH         LINE#         189
  C:5468H         LINE#         190
  C:5472H         LINE#         191
  C:5472H         LINE#         192
  C:5473H         LINE#         193
  C:5474H         LINE#         194
  C:5475H         LINE#         195
  C:5476H         LINE#         196
  C:5477H         LINE#         197
  C:547CH         LINE#         198
  C:547CH         LINE#         199
  C:547CH         LINE#         201
  C:5482H         LINE#         202
  C:5482H         LINE#         204
  C:5485H         LINE#         205
  C:5485H         LINE#         209
  C:5485H         LINE#         211
  C:548BH         LINE#         212
  C:548BH         LINE#         213
  C:548DH         LINE#         215
  C:5495H         LINE#         216
  C:549BH         LINE#         217
  C:549BH         LINE#         218
  C:549BH         LINE#         219
  C:549BH         LINE#         220
  C:54A0H         LINE#         221
  C:54A1H         LINE#         222
  C:54A1H         LINE#         223
  C:54A1H         LINE#         224
  C:54A3H         LINE#         226
  C:54A3H         LINE#         227
  C:54ACH         LINE#         228
  C:54B2H         LINE#         229
  C:54B2H         LINE#         230
  C:54B2H         LINE#         231
  C:54B2H         LINE#         232
  C:54B6H         LINE#         233
  C:54BAH         LINE#         234
  C:54BFH         LINE#         235
  C:54C7H         LINE#         236
  C:54C7H         LINE#         237
  C:54CAH         LINE#         238
  C:54D5H         LINE#         239
BL51 BANKED LINKER/LOCATER V6.22                                                      05/30/2019  12:42:35  PAGE 29


  C:54D5H         LINE#         241
  C:54DBH         LINE#         242
  C:54DBH         LINE#         243
  C:54DBH         LINE#         244
  C:54DBH         LINE#         245
  C:54E1H         LINE#         246
  C:54E1H         LINE#         247
  C:54E4H         LINE#         249
  C:54E4H         LINE#         250
  C:54E4H         LINE#         252
  C:54E4H         LINE#         253
  C:54E7H         LINE#         254
  C:54EFH         LINE#         255
  C:54EFH         LINE#         256
  C:54EFH         LINE#         257
  C:54EFH         LINE#         258
  C:54F5H         LINE#         259
  C:5501H         LINE#         261
  C:5501H         LINE#         262
  C:5501H         LINE#         263
  C:5507H         LINE#         265
  C:550EH         LINE#         266
  C:5511H         LINE#         268
  C:551EH         LINE#         269
  C:5521H         LINE#         271
  C:5528H         LINE#         272
  C:552DH         LINE#         274
  C:552DH         LINE#         275
  C:5530H         LINE#         276
  C:5530H         LINE#         278
  C:5530H         LINE#         279
  C:5530H         LINE#         280
  C:5533H         LINE#         281
  C:5539H         LINE#         282
  C:5539H         LINE#         283
  C:553CH         LINE#         284
  C:5548H         LINE#         285
  C:5552H         LINE#         286
  C:5552H         LINE#         287
  C:5553H         LINE#         288
  C:5554H         LINE#         289
  C:5555H         LINE#         290
  C:5556H         LINE#         291
  C:5557H         LINE#         292
  C:555CH         LINE#         293
  C:555CH         LINE#         294
  C:555CH         LINE#         296
  C:5562H         LINE#         297
  C:5562H         LINE#         299
  C:5568H         LINE#         301
  C:5573H         LINE#         302
  C:5573H         LINE#         303
  C:5576H         LINE#         304
  C:5576H         LINE#         305
  C:5579H         LINE#         306
  C:5584H         LINE#         307
  C:5584H         LINE#         308
BL51 BANKED LINKER/LOCATER V6.22                                                      05/30/2019  12:42:35  PAGE 30


  C:5589H         LINE#         310
  C:558FH         LINE#         311
  C:558FH         LINE#         312
  C:5597H         LINE#         313
  C:55A9H         LINE#         314
  C:55BEH         LINE#         315
  C:55BEH         LINE#         316
  C:55C1H         LINE#         318
  C:55C1H         LINE#         319
  C:55C9H         LINE#         321
  C:55CFH         LINE#         322
  C:55DAH         LINE#         323
  C:55E5H         LINE#         324
  C:55E5H         LINE#         325
  C:55E5H         LINE#         326
  C:55E8H         LINE#         327
  C:55EBH         LINE#         328
  C:55F7H         LINE#         330
  C:55FCH         LINE#         331
  C:5602H         LINE#         332
  C:5608H         LINE#         333
  C:560FH         LINE#         334
  C:5612H         LINE#         336
  C:561FH         LINE#         337
  C:5622H         LINE#         338
  C:5629H         LINE#         339
  C:562EH         LINE#         341
  C:562EH         LINE#         342
  C:5636H         LINE#         343
  C:5636H         LINE#         345
  C:563BH         LINE#         346
  C:563BH         LINE#         347
  C:563EH         LINE#         348
  C:5644H         LINE#         349
  C:5644H         LINE#         350
  C:5647H         LINE#         351
  C:5653H         LINE#         352
  C:565DH         LINE#         353
  C:565DH         LINE#         354
  C:565EH         LINE#         355
  C:565FH         LINE#         356
  C:5660H         LINE#         357
  C:5661H         LINE#         358
  C:5662H         LINE#         359
  C:5667H         LINE#         360
  C:5667H         LINE#         361
  C:5667H         LINE#         363
  C:566DH         LINE#         364
  C:566DH         LINE#         366
  C:5673H         LINE#         367
  C:5673H         LINE#         368
  C:567BH         LINE#         370
  C:5683H         LINE#         371
  C:5688H         LINE#         372
  C:5688H         LINE#         374
  C:568BH         LINE#         375
  C:568BH         LINE#         376
BL51 BANKED LINKER/LOCATER V6.22                                                      05/30/2019  12:42:35  PAGE 31


  C:5699H         LINE#         377
  C:56A1H         LINE#         379
  C:56AFH         LINE#         380
  C:56AFH         LINE#         381
  C:56B3H         LINE#         382
  C:56B3H         LINE#         383
  C:56B5H         LINE#         384
  C:56C3H         LINE#         385
  C:56C3H         LINE#         386
  C:56CFH         LINE#         387
  C:56D2H         LINE#         388
  C:56D2H         LINE#         390
  C:56D2H         LINE#         392
  C:56D2H         LINE#         393
  C:56D2H         LINE#         395
  C:56DDH         LINE#         396
  C:56DDH         LINE#         397
  C:56E0H         LINE#         398
  C:56E0H         LINE#         399
  C:56E0H         LINE#         400
  C:56E3H         LINE#         401
  -------         ENDPROC       MAIN
  -------         ENDMOD        MAIN_24G

  -------         MODULE        MCUFUNCTION
  C:0000H         SYMBOL        _ICE_DUMMY_
  D:00E3H         PUBLIC        P3WUN
  D:0080H         PUBLIC        P0
  D:0090H         PUBLIC        P1
  D:00A0H         PUBLIC        P2
  D:00B0H         PUBLIC        P3
  D:00A8H         PUBLIC        IE
  D:00D1H         PUBLIC        P0OE
  D:00D9H         PUBLIC        P1OE
  D:00A1H         PUBLIC        P2OE
  D:00E1H         PUBLIC        P3OE
  D:00B8H         PUBLIC        IP
  D:0087H         PUBLIC        PCON
  D:0098H         PUBLIC        SCON
  D:0088H         PUBLIC        TCON
  D:00BAH         PUBLIC        RSFLAG
  D:00E8H         PUBLIC        EIE
  D:00C8H         PUBLIC        T2CON
  D:00D2H         PUBLIC        P0PUN
  D:00DAH         PUBLIC        P1PUN
  D:00A2H         PUBLIC        P2PUN
  D:00B9H         PUBLIC        PCONE
  D:00E2H         PUBLIC        P3PUN
  D:00D0H         PUBLIC        PSW
  D:00D3H         PUBLIC        P0WUN
  C:B9A6H         PUBLIC        InitMCU
  D:00DBH         PUBLIC        P1WUN
  D:00A3H         PUBLIC        P2WUN
  -------         PROC          INITMCU
  -------         DO            
  I:001EH         SYMBOL        i
  -------         ENDDO         
BL51 BANKED LINKER/LOCATER V6.22                                                      05/30/2019  12:42:35  PAGE 32


  C:B9A6H         LINE#         18
  C:B9A6H         LINE#         19
  C:B9A6H         LINE#         22
  C:B9A9H         LINE#         23
  C:B9ACH         LINE#         24
  C:B9AEH         LINE#         25
  C:B9B1H         LINE#         27
  C:B9B4H         LINE#         28
  C:B9B6H         LINE#         29
  C:B9B8H         LINE#         30
  C:B9BBH         LINE#         32
  C:B9BEH         LINE#         33
  C:B9C0H         LINE#         34
  C:B9C2H         LINE#         35
  C:B9C5H         LINE#         37
  C:B9C8H         LINE#         38
  C:B9CAH         LINE#         39
  C:B9CCH         LINE#         40
  C:B9CFH         LINE#         43
  C:B9E1H         LINE#         44
  C:B9EFH         LINE#         48
  C:B9F2H         LINE#         49
  C:B9FAH         LINE#         50
  C:B9FDH         LINE#         53
  C:BA07H         LINE#         54
  -------         ENDPROC       INITMCU
  -------         ENDMOD        MCUFUNCTION

  -------         MODULE        IEEEE_ADDRESS
  N:0000H         SYMBOL        IEEEE_ADDRESS
  -------         ENDMOD        IEEEE_ADDRESS

  -------         MODULE        OTA_DATA
  N:0000H         SYMBOL        OTA_DATA
  -------         ENDMOD        OTA_DATA

  -------         MODULE        HOST
  C:0000H         SYMBOL        _ICE_DUMMY_
  C:C565H         PUBLIC        BLE_ANCS_Discover
  C:A746H         PUBLIC        fil_INFO_FLASHBONDwEXST_PBID
  D:0080H         PUBLIC        P0
  D:0090H         PUBLIC        P1
  D:00A0H         PUBLIC        P2
  C:2223H         PUBLIC        SEL_STK_GEN_MTHD
  D:00B0H         PUBLIC        P3
  C:C435H         PUBLIC        _Knl_MemCpyInv
  C:997DH         PUBLIC        Prcss_OPCODE_ATT_Read_Blob_Request
  C:A564H         PUBLIC        Prcss_BLE_CODE_SMP_Pairing_Random
  C:CAAAH         PUBLIC        Prcss_L2CAP_CID_SECURITY_MANAGER_PROTOCOL
  C:031AH         PUBLIC        Prcss_L2CAP_CID_L2CAP_SIGNALING_CHANNEL
  B:00A8H.7       PUBLIC        EA
  C:2213H         PUBLIC        CSRK_FIXED
  X:0700H         PUBLIC        att_HDL_ANCS_PRIMARY_SERVICE
  C:6280H         PUBLIC        Prcss_OPCODE_ATT_Write_Command
  C:21F1H         PUBLIC        SKDS_FIXED
  C:0341H         PUBLIC        Prcss_OPCODE_ATT_Read_Response
  C:032AH         PUBLIC        Prcss_OPCODE_ATT_Exchange_MTU_Response
BL51 BANKED LINKER/LOCATER V6.22                                                      05/30/2019  12:42:35  PAGE 33


  C:451DH         PUBLIC        _cmd_FlashBond
  X:0717H         PUBLIC        att_HDL_ANCS_DATA_SOURCE_CLIENT_CHARACTERISTIC_CONFIGURATION
  D:00A8H         PUBLIC        IE
  C:7F00H         PUBLIC        Prcss_BLE_CODE_SMP_Pairing_Request
  C:0303H         PUBLIC        BLE_GetIdentificationResult
  C:BDD5H         PUBLIC        _Prcss_BLE_CODE_SMP
  C:CA3AH         PUBLIC        _ChkIfBLE_ATT_Chr_Acss_ByUser
  C:BACCH         PUBLIC        Prcss_OPCODE_ATT_Find_By_Type_Value_Response
  C:7C00H         PUBLIC        DATA_FLASHBOND
  C:CAD3H         PUBLIC        Prcss_BLE_CODE_SMP_Encryption_Information
  C:0329H         PUBLIC        Prcss_OPCODE_ATT_NULL
  C:CB6AH         PUBLIC        BLE_Get_ANCS_Nofitication_Envet
  C:2276H         PUBLIC        ATT_HDL_ANCS_CLIENT_CHARACTERISTIC_CONFIGURATION_INIT
  C:CA5DH         PUBLIC        Prcss_PassKey_Pairing_Confirm
  C:22F4H         PUBLIC        AppleNotificationCenterService_param
  C:91DAH         PUBLIC        Prcss_OPCODE_ATT_Find_Information_Request
  C:C1EDH         PUBLIC        Prcss_OPCODE_ATT_Error_Response
  D:00B8H         PUBLIC        IP
  C:0351H         PUBLIC        Prcss_OPCODE_ATT_Write_Response
  C:C71FH         PUBLIC        Prcss_BLE_CODE_SMP_Security_Request
  X:071EH         PUBLIC        att_HDL_ANCS_CHARACTERISTIC_NOTIFICATION_SOURCE
  C:22E2H         PUBLIC        AppleNotificationCenterService
  C:A46AH         PUBLIC        Prcss_OPCODE_ATT_Read_Request
  C:7A00H         PUBLIC        INFO_FLASHBOND
  C:227DH         PUBLIC        ATT_HDL_ANCS_CHARACTERISTIC_CONTROL_POINT_INIT
  C:C97FH         PUBLIC        Prcss_OPCODE_ATT_Exchange_MTU_Request
  C:21BDH         PUBLIC        k_AES
  C:79DDH         PUBLIC        _BLE_Passkey_Set
  C:AD75H         PUBLIC        _Prcss_BLE_OPCODE_ATT
  C:9813H         PUBLIC        Prcss_OPCODE_ATT_Find_By_Type_Value_Request
  C:8255H         PUBLIC        Prcss_OPCODE_ATT_Read_By_Type_Response
  C:21CDH         PUBLIC        r_AES
  X:0736H         PUBLIC        att_HDL_ANCS_CHARACTERISTIC_DATA_SOURCE
  X:074EH         PUBLIC        att_HDL_ANCS_NOTIFICATION_SOURCE
  C:C8A9H         PUBLIC        Prcss_BLE_CODE_SMP_Identity_Information
  C:C9AAH         PUBLIC        _GetBLE_ATTRIBUTE_TYPE_Size
  C:CBB3H         PUBLIC        BLE_GetWriteEvent_Length
  C:C46BH         PUBLIC        _Knl_CodeCpy
  C:2295H         PUBLIC        ATT_HDL_ANCS_CONTROL_POINT_INIT
  C:4C6FH         PUBLIC        Prcss_OPCODE_ATT_Write_Request
  C:C8C2H         PUBLIC        Prcss_BLE_CODE_SMP_Signing_Information
  D:0098H         PUBLIC        SCON
  D:0088H         PUBLIC        TCON
  C:CBFFH         PUBLIC        Prcss_BLE_CODE_SMP_Reserved
  C:C3C6H         PUBLIC        _Knl_MemComp
  C:2203H         PUBLIC        IRK_FIXED
  C:C7BFH         PUBLIC        BLE_ANCS_NotificationSource_Disable
  X:0759H         PUBLIC        att_HDL_ANCS_DATA_SOURCE
  C:034AH         PUBLIC        Prcss_OPCODE_ATT_Read_by_Group_Type_Response
  C:0349H         PUBLIC        Prcss_OPCODE_ATT_Read_Multiple_Response
  C:847DH         PUBLIC        _BLE_SendData
  C:223CH         PUBLIC        ATT_HDL_ANCS_PRIMARY_SERVICE_INIT
  C:21DDH         PUBLIC        LTK_FIXED
  C:22DBH         PUBLIC        ATT_HDL_ANCS_DATA_SOURCE_CLIENT_CHARACTERISTIC_CONFIGURATION_INIT
  C:70BDH         PUBLIC        Prcss_OPCODE_ATT_Read_By_Type_Request
  C:21EDH         PUBLIC        IVS_FIXED
  C:C68DH         PUBLIC        BLE_ANCS_DataSource_Disable
BL51 BANKED LINKER/LOCATER V6.22                                                      05/30/2019  12:42:35  PAGE 34


  C:CBFEH         PUBLIC        Prcss_OPCODE_ATT_Signed_Write_Command
  C:230FH         PUBLIC        IOS_DEVICE_TABLE
  C:C7A0H         PUBLIC        BLE_ANCS_NotificationSource_Enable
  C:BE26H         PUBLIC        SetBLE_ANCS_DISCOVER
  C:0352H         PUBLIC        Prcss_OPCODE_ATT_Prepare_Write_Response
  C:C873H         PUBLIC        _GetBLE_ATTRIBUTE_Value_DynmcLngth
  C:BC87H         PUBLIC        SetBLE_ANCS_NotificatinoSource
  C:21ADH         PUBLIC        UUID_BLUETOOTH_BASE
  C:BF68H         PUBLIC        _ChkBLE_ATTRIBUTE_PERMISSION_Read
  C:0359H         PUBLIC        Prcss_OPCODE_ATT_Execute_Write_Response
  C:2253H         PUBLIC        ATT_HDL_ANCS_CHARACTERISTIC_NOTIFICATION_SOURCE_INIT
  D:00E8H         PUBLIC        EIE
  D:0091H         PUBLIC        EIF
  C:C4D2H         PUBLIC        _Knl_MemCpy
  C:69AEH         PUBLIC        Prcss_OPCODE_ATT_Read_by_Group_Type_Request
  C:CBADH         PUBLIC        Prcss_OPCODE_ATT_Read_Multiple_Request
  C:B5F8H         PUBLIC        Prcss_OPCODE_ATT_Handle_Value_Notification
  C:C665H         PUBLIC        BLE_ANCS_DataSource_Enable
  C:0316H         PUBLIC        Prcss_OPCODE_ATT_Handle_Value_Confirmation
  C:0319H         PUBLIC        Prcss_L2CAP_CID_NULL_IDENTIFIER
  C:8E4DH         PUBLIC        Prcss_BLE_CODE_SMP_Identity_Address_Information
  C:BCDBH         PUBLIC        SetBLE_ANCS_DataSource
  C:BB27H         PUBLIC        _mark_PID_DATA_FLASHBOND
  C:A9B8H         PUBLIC        _ersDATA_FLASHBOND
  X:0770H         PUBLIC        att_HDL_ANCS_CLIENT_CHARACTERISTIC_CONFIGURATION
  C:0321H         PUBLIC        Prcss_L2CAP_CID_CONNECTIONLESS_CHANNEL
  C:C740H         PUBLIC        BLE_GetANCS_Result
  C:C3FEH         PUBLIC        _Knl_CodeCpyInv
  C:22ACH         PUBLIC        ATT_HDL_ANCS_CHARACTERISTIC_DATA_SOURCE_INIT
  C:BFB7H         PUBLIC        _ChkBLE_ATTRIBUTE_PERMISSION_Write
  C:226BH         PUBLIC        ATT_HDL_ANCS_NOTIFICATION_SOURCE_INIT
  C:C591H         PUBLIC        Prcss_L2CAP_CID_ATTRIBUTE_PROTOCOL
  C:9EDAH         PUBLIC        Prcss_OPCODE_ATT_Prepare_Write_Request
  D:00C8H         PUBLIC        T2CON
  C:0322H         PUBLIC        Prcss_L2CAP_CID_AMP_MANAGER_PROTOCOL
  C:C9FEH         PUBLIC        Prcss_BLE_CODE_SMP_Pairing_Failed
  C:CB61H         PUBLIC        BLE_GetWriteEvent
  C:6D39H         PUBLIC        Prcss_OPCODE_ATT_Execute_Write_Request
  C:0342H         PUBLIC        Prcss_OPCODE_ATT_Read_Blob_Response
  C:A251H         PUBLIC        fil_DATA_FLASHBONDwEXST_PBID
  X:0777H         PUBLIC        att_HDL_ANCS_CHARACTERISTIC_CONTROL_POINT
  C:BB82H         PUBLIC        _mark_PID_INFO_FLASHBOND
  C:AA7BH         PUBLIC        _ersINFO_FLASHBOND
  C:035AH         PUBLIC        Prcss_OPCODE_ATT_Handle_Value_Indication
  C:22C4H         PUBLIC        ATT_HDL_ANCS_DATA_SOURCE_INIT
  C:B570H         PUBLIC        Prcss_BLE_CODE_SMP_Pairing_Confirm
  C:CBB9H         PUBLIC        BLE_Get_ANCS_Notification_Length
  C:C49FH         PUBLIC        _Prcss_L2CAP_CID
  C:CC00H         PUBLIC        Prcss_BLE_CODE_SMP_Pairing_Response
  C:C267H         PUBLIC        Prcss_BLE_CODE_SMP_Master_Identification
  C:C22BH         PUBLIC        Prcss_L2CAP_CID_LE_L2CAP_SIGNALING_CHANNEL
  C:21FBH         PUBLIC        RAND_FIXED
  D:00D0H         PUBLIC        PSW
  C:B2ACH         PUBLIC        _BLE_ANCS_Send_Control_Point
  C:21F9H         PUBLIC        EDIV_FIXED
  X:078FH         PUBLIC        att_HDL_ANCS_CONTROL_POINT
  C:9AE7H         PUBLIC        Prcss_OPCODE_ATT_Find_Information_Response
BL51 BANKED LINKER/LOCATER V6.22                                                      05/30/2019  12:42:35  PAGE 35


  C:3D54H         SYMBOL        Com0485
  C:3D54H         SYMBOL        L?1158
  C:3D54H         SYMBOL        L?1159
  C:3D57H         SYMBOL        L?1160
  C:3D59H         SYMBOL        L?1161
  C:3D5CH         SYMBOL        L?1162
  C:3D5FH         SYMBOL        L?1163
  C:3D6DH         SYMBOL        L?1164
  C:3D70H         SYMBOL        L?1165
  C:3D80H         SYMBOL        L?1166
  C:3D81H         SYMBOL        L?1167
  C:3D84H         SYMBOL        L?1168
  C:3D87H         SYMBOL        L?1169
  C:3D92H         SYMBOL        L?1170
  C:3DB5H         SYMBOL        L?1171
  C:3DB7H         SYMBOL        L?1172
  C:3DB8H         SYMBOL        L?1173
  C:3DBBH         SYMBOL        L?1174
  C:3DBFH         SYMBOL        L?1175
  C:3DCEH         SYMBOL        L?1176
  C:3DD1H         SYMBOL        L?1177
  C:3DD4H         SYMBOL        L?1178
  C:3DD7H         SYMBOL        L?1179
  C:3DDEH         SYMBOL        L?1180
  C:3DE0H         SYMBOL        L?1181
  C:3DE1H         SYMBOL        L?1182
  C:3DE2H         SYMBOL        L?1183
  C:3DE9H         SYMBOL        L?1184
  C:3DE9H         SYMBOL        L?1185
  C:3DF8H         SYMBOL        L?1186
  C:3DFDH         SYMBOL        L?1187
  C:3DFEH         SYMBOL        L?1188
  C:3E0DH         SYMBOL        L?1189
  C:3E0DH         SYMBOL        L?1190
  C:3E0EH         SYMBOL        L?1191
  C:3E12H         SYMBOL        L?1192
  C:3E15H         SYMBOL        L?1193
  C:3E1BH         SYMBOL        L?1194
  C:3E1BH         SYMBOL        L?1195
  C:3E1EH         SYMBOL        L?1196
  C:3E21H         SYMBOL        L?1197
  C:3E27H         SYMBOL        L?1198
  C:3E2EH         SYMBOL        L?1199
  C:3E2FH         SYMBOL        L?1200
  C:3E32H         SYMBOL        L?1201
  C:3E38H         SYMBOL        L?1202
  C:3E38H         SYMBOL        L?1203
  C:3E41H         SYMBOL        L?1204
  C:3E48H         SYMBOL        L?1205
  C:3E48H         SYMBOL        L?1206
  C:3E63H         SYMBOL        L?1207
  C:3E63H         SYMBOL        L?1208
  C:3E66H         SYMBOL        L?1209
  C:3E67H         SYMBOL        L?1210
  C:3E70H         SYMBOL        L?1211
  C:3E70H         SYMBOL        L?1212
  C:3E76H         SYMBOL        L?1213
BL51 BANKED LINKER/LOCATER V6.22                                                      05/30/2019  12:42:35  PAGE 36


  C:3E77H         SYMBOL        L?1214
  C:3E7DH         SYMBOL        L?1215
  C:3E7DH         SYMBOL        L?1216
  C:3E8BH         SYMBOL        L?1217
  C:3E8EH         SYMBOL        L?1218
  C:3E96H         SYMBOL        L?1219
  C:3E96H         SYMBOL        L?1220
  C:3E97H         SYMBOL        L?1221
  C:3E9AH         SYMBOL        L?1222
  C:3E9BH         SYMBOL        L?1223
  C:3EA9H         SYMBOL        L?1224
  C:3EADH         SYMBOL        L?1225
  C:3EAFH         SYMBOL        L?1226
  C:3EB0H         SYMBOL        L?1227
  C:3EB1H         SYMBOL        L?1228
  C:3EB8H         SYMBOL        L?1229
  C:3EC3H         SYMBOL        L?1230
  C:3ECBH         SYMBOL        L?1231
  C:3ED6H         SYMBOL        L?1232
  C:3ED6H         SYMBOL        L?1233
  C:3EECH         SYMBOL        L?1234
  C:3EECH         SYMBOL        L?1235
  C:3EF1H         SYMBOL        L?1236
  C:3EFCH         SYMBOL        L?1237
  C:3EFCH         SYMBOL        L?1238
  C:3EFFH         SYMBOL        L?1239
  C:3F06H         SYMBOL        L?1240
  C:3F06H         SYMBOL        L?1241
  C:3F0EH         SYMBOL        L?1242
  C:3F11H         SYMBOL        L?1243
  C:3F19H         SYMBOL        L?1244
  C:3F19H         SYMBOL        L?1245
  C:3F28H         SYMBOL        L?1246
  C:3F28H         SYMBOL        L?1247
  C:3F39H         SYMBOL        L?1248
  C:3F48H         SYMBOL        L?1249
  C:3F4EH         SYMBOL        L?1250
  C:3F54H         SYMBOL        L?1251
  C:3F57H         SYMBOL        L?1252
  C:3F58H         SYMBOL        L?1253
  C:3F60H         SYMBOL        L?1254
  C:3F60H         SYMBOL        L?1255
  C:3F66H         SYMBOL        L?1256
  C:3F6DH         SYMBOL        L?1257
  C:3F78H         SYMBOL        L?1258
  C:3F78H         SYMBOL        L?1259
  C:3F83H         SYMBOL        L?1260
  C:3F85H         SYMBOL        L?1261
  C:3F86H         SYMBOL        L?1262
  C:3F89H         SYMBOL        L?1263
  C:3F92H         SYMBOL        L?1264
  C:3F92H         SYMBOL        L?1265
  C:3FA0H         SYMBOL        L?1266
  C:3FB4H         SYMBOL        L?1267
  C:3FB5H         SYMBOL        L?1268
  C:3FBCH         SYMBOL        L?1269
  C:3FC0H         SYMBOL        L?1270
BL51 BANKED LINKER/LOCATER V6.22                                                      05/30/2019  12:42:35  PAGE 37


  C:3FD0H         SYMBOL        L?1271
  C:3FDDH         SYMBOL        L?1272
  C:3FE4H         SYMBOL        L?1273
  C:3FE4H         SYMBOL        L?1274
  C:3FE6H         SYMBOL        L?1275
  C:3FE9H         SYMBOL        L?1276
  C:3FF1H         SYMBOL        L?1277
  C:3FF1H         SYMBOL        L?1278
  C:3FFAH         SYMBOL        L?1279
  C:3FFAH         SYMBOL        L?1280
  C:3FFCH         SYMBOL        L?1281
  C:4002H         SYMBOL        L?1285
  C:4005H         SYMBOL        L?1286
  C:4007H         SYMBOL        L?1287
  C:400EH         SYMBOL        L?1288
  C:400EH         SYMBOL        L?1289
  C:4017H         SYMBOL        L?1290
  C:401EH         SYMBOL        L?1291
  C:4041H         SYMBOL        L?1292
  C:4041H         SYMBOL        L?1293
  C:4047H         SYMBOL        L?1294
  C:404DH         SYMBOL        L?1295
  C:404DH         SYMBOL        L?1296
  C:4050H         SYMBOL        L?1297
  C:4057H         SYMBOL        L?1298
  C:4057H         SYMBOL        L?1299
  C:405AH         SYMBOL        L?1300
  C:4061H         SYMBOL        L?1304
  C:4061H         SYMBOL        L?1305
  C:406AH         SYMBOL        L?1306
  C:406AH         SYMBOL        L?1307
  C:4073H         SYMBOL        L?1308
  C:408EH         SYMBOL        L?1309
  C:40A9H         SYMBOL        L?1310
  C:40C4H         SYMBOL        L?1311
  C:40C4H         SYMBOL        L?1312
  C:40C7H         SYMBOL        L?1313
  C:40D0H         SYMBOL        L?1314
  C:40E9H         SYMBOL        L?1315
  C:40F3H         SYMBOL        L?1316
  C:40FAH         SYMBOL        L?1317
  C:40FBH         SYMBOL        L?1318
  C:4102H         SYMBOL        L?1319
  C:4108H         SYMBOL        L?1320
  C:410FH         SYMBOL        L?1321
  C:410FH         SYMBOL        L?1322
  C:411DH         SYMBOL        L?1323
  C:411DH         SYMBOL        L?1324
  C:4125H         SYMBOL        L?1325
  C:4125H         SYMBOL        L?1326
  C:412DH         SYMBOL        L?1327
  C:4144H         SYMBOL        L?1328
  C:4148H         SYMBOL        L?1329
  C:414FH         SYMBOL        L?1330
  C:4153H         SYMBOL        L?1331
  C:415AH         SYMBOL        L?1332
  C:4161H         SYMBOL        L?1333
BL51 BANKED LINKER/LOCATER V6.22                                                      05/30/2019  12:42:35  PAGE 38


  C:4168H         SYMBOL        L?1334
  C:4168H         SYMBOL        L?1335
  C:4172H         SYMBOL        L?1336
  C:4172H         SYMBOL        L?1337
  C:417FH         SYMBOL        L?1338
  C:417FH         SYMBOL        L?1339
  C:418BH         SYMBOL        L?1340
  C:418FH         SYMBOL        L?1341
  C:4190H         SYMBOL        L?1342
  C:4197H         SYMBOL        L?1343
  C:4197H         SYMBOL        L?1344
  C:419EH         SYMBOL        L?1345
  C:419EH         SYMBOL        L?1346
  C:41A8H         SYMBOL        L?1347
  C:41A8H         SYMBOL        L?1348
  C:41A9H         SYMBOL        L?1349
  C:41AFH         SYMBOL        L?1350
  C:41C4H         SYMBOL        L?1351
  C:41C6H         SYMBOL        L?1352
  C:41CDH         SYMBOL        L?1353
  C:41CDH         SYMBOL        L?1354
  C:41CEH         SYMBOL        L?1355
  C:41D7H         SYMBOL        L?1356
  C:41D7H         SYMBOL        L?1357
  C:41E3H         SYMBOL        L?1358
  C:41E3H         SYMBOL        L?1359
  C:41EFH         SYMBOL        L?1360
  C:41EFH         SYMBOL        L?1361
  C:41F7H         SYMBOL        L?1362
  C:420BH         SYMBOL        L?1363
  C:4211H         SYMBOL        L?1364
  C:421AH         SYMBOL        L?1365
  C:422EH         SYMBOL        L?1366
  C:4242H         SYMBOL        L?1367
  C:4242H         SYMBOL        L?1368
  C:424BH         SYMBOL        L?1369
  C:425DH         SYMBOL        L?1370
  C:425DH         SYMBOL        L?1371
  C:4266H         SYMBOL        L?1372
  C:4266H         SYMBOL        L?1373
  C:4271H         SYMBOL        L?1374
  C:4271H         SYMBOL        L?1375
  C:4272H         SYMBOL        L?1376
  C:4278H         SYMBOL        L?1377
  C:4278H         SYMBOL        L?1378
  C:4283H         SYMBOL        L?1379
  C:4295H         SYMBOL        L?1383
  C:42A6H         SYMBOL        L?1384
  C:42B7H         SYMBOL        L?1387
  C:42B7H         SYMBOL        L?1388
  C:42BDH         SYMBOL        L?1389
  C:42CDH         SYMBOL        L?1390
  C:42CDH         SYMBOL        L?1391
  C:42D4H         SYMBOL        L?1392
  C:42D4H         SYMBOL        L?1393
  C:42DEH         SYMBOL        L?1394
  C:42DEH         SYMBOL        L?1395
BL51 BANKED LINKER/LOCATER V6.22                                                      05/30/2019  12:42:35  PAGE 39


  C:42E6H         SYMBOL        L?1396
  C:42E9H         SYMBOL        L?1397
  C:42F0H         SYMBOL        L?1398
  C:42F0H         SYMBOL        L?1399
  C:42FAH         SYMBOL        L?1400
  C:42FAH         SYMBOL        L?1401
  C:4302H         SYMBOL        L?1402
  C:4312H         SYMBOL        L?1403
  C:4321H         SYMBOL        L?1404
  C:4330H         SYMBOL        L?1405
  C:433EH         SYMBOL        L?1406
  C:434CH         SYMBOL        L?1407
  C:435AH         SYMBOL        L?1408
  C:435CH         SYMBOL        L?1409
  C:4363H         SYMBOL        L?1410
  C:4363H         SYMBOL        L?1411
  C:436CH         SYMBOL        L?1412
  C:436CH         SYMBOL        L?1413
  C:4375H         SYMBOL        L?1414
  C:4375H         SYMBOL        L?1415
  C:437EH         SYMBOL        L?1416
  C:437EH         SYMBOL        L?1417
  C:4387H         SYMBOL        L?1418
  C:4388H         SYMBOL        L?1419
  C:438FH         SYMBOL        L?1420
  C:439DH         SYMBOL        L?1421
  C:439EH         SYMBOL        L?1422
  C:43A5H         SYMBOL        L?1423
  C:43B3H         SYMBOL        L?1426
  C:43B4H         SYMBOL        L?1427
  C:43BCH         SYMBOL        L?1428
  C:43C9H         SYMBOL        L?1429
  C:43C9H         SYMBOL        L?1430
  C:43CFH         SYMBOL        L?1431
  C:43D2H         SYMBOL        L?1432
  C:43D9H         SYMBOL        L?1433
  C:43D9H         SYMBOL        L?1434
  C:43E0H         SYMBOL        L?1435
  C:43EDH         SYMBOL        L?1436
  C:43F0H         SYMBOL        L?1437
  C:43F6H         SYMBOL        L?1440
  C:43F6H         SYMBOL        L?1441
  C:43FEH         SYMBOL        L?1442
  C:440AH         SYMBOL        L?1443
  C:4416H         SYMBOL        L?1444
  C:4422H         SYMBOL        L?1445
  C:4422H         SYMBOL        L?1446
  C:442AH         SYMBOL        L?1447
  C:442AH         SYMBOL        L?1448
  C:4432H         SYMBOL        L?1449
  C:443DH         SYMBOL        L?1450
  C:443DH         SYMBOL        L?1451
  C:4444H         SYMBOL        L?1452
  C:4444H         SYMBOL        L?1453
  C:444CH         SYMBOL        L?1454
  C:4458H         SYMBOL        L?1455
  C:4458H         SYMBOL        L?1456
BL51 BANKED LINKER/LOCATER V6.22                                                      05/30/2019  12:42:35  PAGE 40


  C:4460H         SYMBOL        L?1457
  C:4461H         SYMBOL        L?1458
  C:4468H         SYMBOL        L?1459
  C:4473H         SYMBOL        L?1460
  C:4474H         SYMBOL        L?1461
  C:447BH         SYMBOL        L?1462
  C:447BH         SYMBOL        L?1463
  C:4482H         SYMBOL        L?1464
  C:448CH         SYMBOL        L?1465
  C:448CH         SYMBOL        L?1466
  C:4493H         SYMBOL        L?1467
  C:449DH         SYMBOL        L?1468
  C:44A7H         SYMBOL        L?1469
  C:44A7H         SYMBOL        L?1470
  C:44AEH         SYMBOL        L?1471
  C:44AEH         SYMBOL        L?1472
  C:44B4H         SYMBOL        L?1473
  C:44B4H         SYMBOL        L?1474
  C:44BBH         SYMBOL        L?1475
  C:44C5H         SYMBOL        L?1476
  C:44CFH         SYMBOL        L?1477
  C:44D9H         SYMBOL        L?1478
  C:44D9H         SYMBOL        L?1479
  C:44E0H         SYMBOL        L?1480
  C:44E0H         SYMBOL        L?1481
  C:44E7H         SYMBOL        L?1482
  C:44E7H         SYMBOL        L?1483
  C:44EEH         SYMBOL        L?1484
  C:44EEH         SYMBOL        L?1485
  C:44F5H         SYMBOL        L?1486
  C:44FFH         SYMBOL        L?1487
  C:4509H         SYMBOL        L?1488
  C:4513H         SYMBOL        L?1489
  -------         PROC          COM0485
  -------         ENDPROC       COM0485
  -------         PROC          _PRCSS_L2CAP_CID
  D:0007H         SYMBOL        select
  C:C49FH         LINE#         114
  C:C49FH         LINE#         115
  C:C49FH         LINE#         116
  C:C4BCH         LINE#         117
  C:C4BCH         LINE#         118
  C:C4BFH         LINE#         119
  C:C4C2H         LINE#         120
  C:C4C5H         LINE#         121
  C:C4C8H         LINE#         122
  C:C4CBH         LINE#         123
  C:C4CEH         LINE#         124
  C:C4D1H         LINE#         125
  C:C4D1H         LINE#         126
  C:C4D1H         LINE#         127
  -------         ENDPROC       _PRCSS_L2CAP_CID
  -------         PROC          _PRCSS_BLE_OPCODE_ATT
  D:0007H         SYMBOL        select
  C:AD75H         LINE#         163
  C:AD75H         LINE#         164
  C:AD75H         LINE#         165
BL51 BANKED LINKER/LOCATER V6.22                                                      05/30/2019  12:42:35  PAGE 41


  C:ADDAH         LINE#         166
  C:ADDAH         LINE#         167
  C:ADDAH         LINE#         168
  C:ADDDH         LINE#         169
  C:ADE0H         LINE#         170
  C:ADE3H         LINE#         171
  C:ADE6H         LINE#         172
  C:ADE9H         LINE#         173
  C:ADECH         LINE#         174
  C:ADEFH         LINE#         175
  C:ADF2H         LINE#         176
  C:ADF5H         LINE#         177
  C:ADF8H         LINE#         178
  C:ADFBH         LINE#         179
  C:ADFEH         LINE#         180
  C:AE01H         LINE#         181
  C:AE04H         LINE#         182
  C:AE07H         LINE#         183
  C:AE0AH         LINE#         184
  C:AE0DH         LINE#         185
  C:AE10H         LINE#         186
  C:AE13H         LINE#         187
  C:AE13H         LINE#         188
  C:AE13H         LINE#         189
  C:AE16H         LINE#         190
  C:AE19H         LINE#         191
  C:AE1CH         LINE#         192
  C:AE1FH         LINE#         193
  C:AE21H         LINE#         194
  C:AE24H         LINE#         195
  C:AE27H         LINE#         196
  C:AE2AH         LINE#         197
  C:AE2DH         LINE#         198
  C:AE2DH         LINE#         199
  C:AE2DH         LINE#         200
  -------         ENDPROC       _PRCSS_BLE_OPCODE_ATT
  -------         PROC          _PRCSS_BLE_CODE_SMP
  D:0007H         SYMBOL        select
  C:BDD5H         LINE#         217
  C:BDD5H         LINE#         218
  C:BDD5H         LINE#         219
  C:BE01H         LINE#         220
  C:BE01H         LINE#         221
  C:BE04H         LINE#         222
  C:BE07H         LINE#         223
  C:BE0AH         LINE#         224
  C:BE0DH         LINE#         225
  C:BE10H         LINE#         226
  C:BE13H         LINE#         227
  C:BE16H         LINE#         228
  C:BE19H         LINE#         229
  C:BE1CH         LINE#         230
  C:BE1FH         LINE#         231
  C:BE22H         LINE#         232
  C:BE25H         LINE#         233
  C:BE25H         LINE#         234
  C:BE25H         LINE#         235
BL51 BANKED LINKER/LOCATER V6.22                                                      05/30/2019  12:42:35  PAGE 42


  -------         ENDPROC       _PRCSS_BLE_CODE_SMP
  -------         PROC          _KNL_MEMCPY
  X:0AF1H         SYMBOL        pDst
  X:0AF3H         SYMBOL        pSrc
  D:0003H         SYMBOL        len
  C:C4D2H         LINE#         671
  C:C4E0H         LINE#         672
  C:C4E0H         LINE#         673
  C:C4E0H         LINE#         674
  C:C4E1H         LINE#         675
  C:C501H         LINE#         676
  C:C504H         LINE#         677
  -------         ENDPROC       _KNL_MEMCPY
  -------         PROC          _KNL_MEMCPYINV
  X:0AF5H         SYMBOL        pDst
  X:0AF7H         SYMBOL        pSrc
  D:0003H         SYMBOL        len
  -------         DO            
  D:0007H         SYMBOL        i
  -------         ENDDO         
  C:C435H         LINE#         679
  C:C443H         LINE#         680
  C:C443H         LINE#         683
  C:C445H         LINE#         684
  C:C445H         LINE#         685
  C:C446H         LINE#         686
  C:C466H         LINE#         687
  C:C467H         LINE#         688
  C:C46AH         LINE#         689
  -------         ENDPROC       _KNL_MEMCPYINV
  -------         PROC          _KNL_CODECPY
  X:0AF9H         SYMBOL        pDst
  X:0AFBH         SYMBOL        pSrc
  D:0003H         SYMBOL        len
  C:C46BH         LINE#         692
  C:C479H         LINE#         693
  C:C479H         LINE#         694
  C:C479H         LINE#         695
  C:C47AH         LINE#         696
  C:C49BH         LINE#         697
  C:C49EH         LINE#         698
  -------         ENDPROC       _KNL_CODECPY
  -------         PROC          _KNL_CODECPYINV
  X:0AFDH         SYMBOL        pDst
  X:0AFFH         SYMBOL        pSrc
  D:0003H         SYMBOL        len
  -------         DO            
  D:0007H         SYMBOL        i
  -------         ENDDO         
  C:C3FEH         LINE#         701
  C:C40CH         LINE#         702
  C:C40CH         LINE#         705
  C:C40EH         LINE#         706
  C:C40EH         LINE#         707
  C:C40FH         LINE#         708
  C:C430H         LINE#         709
  C:C431H         LINE#         710
BL51 BANKED LINKER/LOCATER V6.22                                                      05/30/2019  12:42:35  PAGE 43


  C:C434H         LINE#         711
  -------         ENDPROC       _KNL_CODECPYINV
  -------         PROC          _KNL_MEMCOMP
  X:0B01H         SYMBOL        pDst
  X:0B03H         SYMBOL        pSrc
  D:0003H         SYMBOL        len
  C:C3C6H         LINE#         714
  C:C3D4H         LINE#         715
  C:C3D4H         LINE#         716
  C:C3D7H         LINE#         717
  C:C3D8H         LINE#         718
  C:C3FAH         LINE#         719
  C:C3FAH         LINE#         720
  C:C3FAH         LINE#         722
  C:C3FDH         LINE#         723
  -------         ENDPROC       _KNL_MEMCOMP
  -------         PROC          PRCSS_L2CAP_CID_NULL_IDENTIFIER
  C:0319H         LINE#         729
  C:0319H         LINE#         730
  C:0319H         LINE#         731
  -------         ENDPROC       PRCSS_L2CAP_CID_NULL_IDENTIFIER
  -------         PROC          PRCSS_L2CAP_CID_L2CAP_SIGNALING_CHANNEL
  C:031AH         LINE#         736
  C:031AH         LINE#         737
  C:031AH         LINE#         738
  -------         ENDPROC       PRCSS_L2CAP_CID_L2CAP_SIGNALING_CHANNEL
  -------         PROC          PRCSS_L2CAP_CID_CONNECTIONLESS_CHANNEL
  C:0321H         LINE#         743
  C:0321H         LINE#         744
  C:0321H         LINE#         745
  -------         ENDPROC       PRCSS_L2CAP_CID_CONNECTIONLESS_CHANNEL
  -------         PROC          PRCSS_L2CAP_CID_AMP_MANAGER_PROTOCOL
  C:0322H         LINE#         750
  C:0322H         LINE#         751
  C:0322H         LINE#         752
  -------         ENDPROC       PRCSS_L2CAP_CID_AMP_MANAGER_PROTOCOL
  -------         PROC          PRCSS_L2CAP_CID_ATTRIBUTE_PROTOCOL
  C:C591H         LINE#         757
  C:C591H         LINE#         758
  C:C591H         LINE#         759
  C:C59AH         LINE#         760
  C:C59AH         LINE#         761
  C:C5A0H         LINE#         762
  C:C5A0H         LINE#         764
  C:C5A3H         LINE#         765
  C:C5A3H         LINE#         766
  C:C5A3H         LINE#         767
  C:C5A9H         LINE#         768
  C:C5A9H         LINE#         769
  C:C5A9H         LINE#         771
  C:C5A9H         LINE#         772
  C:C5B5H         LINE#         773
  C:C5B5H         LINE#         774
  C:C5B5H         LINE#         775
  C:C5B8H         LINE#         776
  C:C5B8H         LINE#         778
  C:C5B8H         LINE#         779
BL51 BANKED LINKER/LOCATER V6.22                                                      05/30/2019  12:42:35  PAGE 44


  C:C5BBH         LINE#         780
  C:C5BBH         LINE#         782
  C:C5BBH         LINE#         783
  C:C5BBH         LINE#         784
  C:C5BBH         LINE#         785
  C:C5BBH         LINE#         786
  -------         ENDPROC       PRCSS_L2CAP_CID_ATTRIBUTE_PROTOCOL
  -------         PROC          PRCSS_L2CAP_CID_LE_L2CAP_SIGNALING_CHANNEL
  -------         DO            
  D:0007H         SYMBOL        i
  -------         ENDDO         
  C:C22BH         LINE#         791
  C:C22BH         LINE#         792
  C:C22BH         LINE#         795
  C:C230H         LINE#         796
  C:C235H         LINE#         797
  C:C235H         LINE#         798
  C:C23DH         LINE#         799
  C:C23DH         LINE#         800
  C:C23DH         LINE#         801
  C:C23DH         LINE#         802
  C:C245H         LINE#         803
  C:C246H         LINE#         805
  C:C246H         LINE#         806
  C:C246H         LINE#         808
  C:C246H         LINE#         809
  C:C246H         LINE#         810
  C:C246H         LINE#         811
  C:C24AH         LINE#         812
  C:C24DH         LINE#         813
  C:C24FH         LINE#         814
  C:C24FH         LINE#         815
  C:C24FH         LINE#         816
  C:C251H         LINE#         817
  C:C251H         LINE#         818
  C:C251H         LINE#         820
  C:C251H         LINE#         821
  C:C251H         LINE#         822
  C:C251H         LINE#         823
  C:C255H         LINE#         824
  C:C258H         LINE#         825
  C:C25CH         LINE#         826
  C:C25DH         LINE#         827
  C:C266H         LINE#         828
  C:C266H         LINE#         829
  -------         ENDPROC       PRCSS_L2CAP_CID_LE_L2CAP_SIGNALING_CHANNEL
  -------         PROC          PRCSS_L2CAP_CID_SECURITY_MANAGER_PROTOCOL
  -------         DO            
  D:0007H         SYMBOL        i
  -------         ENDDO         
  C:CAAAH         LINE#         834
  C:CAAAH         LINE#         835
  C:CAAAH         LINE#         838
  C:CAAFH         LINE#         839
  C:CAB4H         LINE#         840
  C:CAB4H         LINE#         842
  C:CAB7H         LINE#         843
BL51 BANKED LINKER/LOCATER V6.22                                                      05/30/2019  12:42:35  PAGE 45


  C:CAB7H         LINE#         844
  -------         ENDPROC       PRCSS_L2CAP_CID_SECURITY_MANAGER_PROTOCOL
  -------         PROC          PRCSS_OPCODE_ATT_NULL
  C:0329H         LINE#         849
  C:0329H         LINE#         850
  C:0329H         LINE#         851
  -------         ENDPROC       PRCSS_OPCODE_ATT_NULL
  -------         PROC          PRCSS_OPCODE_ATT_ERROR_RESPONSE
  C:C1EDH         LINE#         856
  C:C1EDH         LINE#         857
  C:C1EDH         LINE#         858
  C:C1F5H         LINE#         859
  C:C1F5H         LINE#         860
  C:C1F5H         LINE#         861
  C:C1F5H         LINE#         862
  C:C1F5H         LINE#         863
  C:C1F7H         LINE#         864
  C:C1FDH         LINE#         865
  C:C1FDH         LINE#         866
  C:C208H         LINE#         867
  C:C208H         LINE#         868
  C:C208H         LINE#         869
  C:C20DH         LINE#         870
  C:C20DH         LINE#         871
  C:C20DH         LINE#         872
  C:C211H         LINE#         873
  C:C214H         LINE#         874
  C:C217H         LINE#         875
  C:C219H         LINE#         877
  C:C219H         LINE#         878
  C:C219H         LINE#         879
  C:C219H         LINE#         880
  C:C219H         LINE#         881
  C:C21DH         LINE#         882
  C:C21DH         LINE#         883
  C:C21FH         LINE#         884
  C:C21FH         LINE#         885
  C:C21FH         LINE#         886
  C:C21FH         LINE#         887
  C:C227H         LINE#         888
  C:C227H         LINE#         890
  C:C227H         LINE#         891
  C:C227H         LINE#         892
  C:C227H         LINE#         893
  C:C22AH         LINE#         894
  C:C22AH         LINE#         895
  C:C22AH         LINE#         896
  -------         ENDPROC       PRCSS_OPCODE_ATT_ERROR_RESPONSE
  -------         PROC          PRCSS_OPCODE_ATT_EXCHANGE_MTU_REQUEST
  C:C97FH         LINE#         901
  C:C97FH         LINE#         902
  C:C97FH         LINE#         903
  C:C985H         LINE#         904
  C:C98CH         LINE#         905
  C:C98CH         LINE#         906
  -------         ENDPROC       PRCSS_OPCODE_ATT_EXCHANGE_MTU_REQUEST
  -------         PROC          PRCSS_OPCODE_ATT_EXCHANGE_MTU_RESPONSE
BL51 BANKED LINKER/LOCATER V6.22                                                      05/30/2019  12:42:35  PAGE 46


  C:032AH         LINE#         912
  C:032AH         LINE#         913
  C:032AH         LINE#         914
  -------         ENDPROC       PRCSS_OPCODE_ATT_EXCHANGE_MTU_RESPONSE
  -------         PROC          PRCSS_OPCODE_ATT_FIND_INFORMATION_REQUEST
  -------         DO            
  B:0028H.3       SYMBOL        Rsp_Error
  X:0ACAH         SYMBOL        Handle_Att_RPT_S
  X:0ACBH         SYMBOL        Handle_Att_RPT_E
  X:0ACCH         SYMBOL        sizeRSP_PDUlgth
  X:0ACDH         SYMBOL        i
  D:0006H         SYMBOL        j
  D:0007H         SYMBOL        idx
  X:0ACEH         SYMBOL        att_format
  -------         ENDDO         
  C:91DAH         LINE#         919
  C:91DAH         LINE#         920
  C:91DAH         LINE#         928
  C:91DCH         LINE#         930
  C:91E4H         LINE#         931
  C:91E4H         LINE#         932
  C:91E9H         LINE#         933
  C:91E9H         LINE#         934
  C:91EBH         LINE#         935
  C:91EBH         LINE#         936
  C:91EDH         LINE#         937
  C:91F2H         LINE#         938
  C:91F2H         LINE#         939
  C:91F4H         LINE#         940
  C:91F4H         LINE#         941
  C:91FBH         LINE#         942
  C:91FBH         LINE#         943
  C:91FFH         LINE#         944
  C:91FFH         LINE#         945
  C:9201H         LINE#         946
  C:9201H         LINE#         947
  C:9201H         LINE#         948
  C:9204H         LINE#         949
  C:9204H         LINE#         950
  C:9213H         LINE#         951
  C:9216H         LINE#         953
  C:9216H         LINE#         954
  C:9218H         LINE#         955
  C:921DH         LINE#         957
  C:921DH         LINE#         958
  C:922BH         LINE#         959
  C:922BH         LINE#         960
  C:9238H         LINE#         961
  C:9238H         LINE#         962
  C:9240H         LINE#         963
  C:9242H         LINE#         964
  C:9244H         LINE#         965
  C:9244H         LINE#         966
  C:9244H         LINE#         967
  C:9247H         LINE#         968
  C:9252H         LINE#         970
  C:9255H         LINE#         971
BL51 BANKED LINKER/LOCATER V6.22                                                      05/30/2019  12:42:35  PAGE 47


  C:9255H         LINE#         972
  C:9257H         LINE#         974
  C:9257H         LINE#         975
  C:9262H         LINE#         976
  C:9262H         LINE#         977
  C:926DH         LINE#         978
  C:926DH         LINE#         979
  C:9275H         LINE#         980
  C:9277H         LINE#         981
  C:9277H         LINE#         983
  C:9277H         LINE#         984
  C:9277H         LINE#         985
  C:9277H         LINE#         986
  C:927DH         LINE#         987
  C:927DH         LINE#         989
  C:927DH         LINE#         990
  C:927DH         LINE#         991
  C:927DH         LINE#         992
  C:928DH         LINE#         993
  C:928DH         LINE#         994
  C:9293H         LINE#         995
  C:9293H         LINE#         996
  C:9299H         LINE#         997
  C:92ACH         LINE#         998
  C:92B0H         LINE#         999
  C:92B6H         LINE#         1000
  C:92BAH         LINE#         1002
  C:92BAH         LINE#         1003
  C:92D5H         LINE#         1004
  C:92D5H         LINE#         1006
  C:92D8H         LINE#         1007
  C:92E0H         LINE#         1008
  C:92E8H         LINE#         1009
  C:92E8H         LINE#         1010
  C:92EDH         LINE#         1012
  C:9302H         LINE#         1013
  C:9306H         LINE#         1014
  C:9319H         LINE#         1015
  C:931DH         LINE#         1016
  C:9320H         LINE#         1017
  C:9321H         LINE#         1018
  C:932AH         LINE#         1019
  C:932AH         LINE#         1020
  C:9349H         LINE#         1021
  C:934DH         LINE#         1022
  C:934EH         LINE#         1023
  C:9350H         LINE#         1024
  C:9356H         LINE#         1025
  C:9364H         LINE#         1026
  C:9369H         LINE#         1027
  C:9369H         LINE#         1028
  C:9369H         LINE#         1029
  C:9369H         LINE#         1030
  C:9373H         LINE#         1031
  C:9373H         LINE#         1033
  C:9373H         LINE#         1034
  C:937CH         LINE#         1035
BL51 BANKED LINKER/LOCATER V6.22                                                      05/30/2019  12:42:35  PAGE 48


  C:937CH         LINE#         1036
  C:937CH         LINE#         1037
  -------         ENDPROC       PRCSS_OPCODE_ATT_FIND_INFORMATION_REQUEST
  -------         PROC          PRCSS_OPCODE_ATT_FIND_INFORMATION_RESPONSE
  -------         DO            
  D:0004H         SYMBOL        i
  B:0028H.4       SYMBOL        Rsp_Error
  -------         ENDDO         
  C:9AE7H         LINE#         1042
  C:9AE7H         LINE#         1043
  C:9AE7H         LINE#         1047
  C:9AE9H         LINE#         1048
  C:9AECH         LINE#         1050
  C:9AECH         LINE#         1051
  C:9AF4H         LINE#         1052
  C:9AF4H         LINE#         1053
  C:9B03H         LINE#         1054
  C:9B03H         LINE#         1055
  C:9B15H         LINE#         1056
  C:9B15H         LINE#         1057
  C:9B17H         LINE#         1058
  C:9B19H         LINE#         1059
  C:9B19H         LINE#         1060
  C:9B19H         LINE#         1061
  C:9B19H         LINE#         1063
  C:9B19H         LINE#         1064
  C:9B28H         LINE#         1065
  C:9B28H         LINE#         1066
  C:9B39H         LINE#         1067
  C:9B39H         LINE#         1068
  C:9B3BH         LINE#         1069
  C:9B3DH         LINE#         1070
  C:9B3DH         LINE#         1071
  C:9B3DH         LINE#         1072
  C:9B3DH         LINE#         1073
  C:9B42H         LINE#         1074
  C:9B48H         LINE#         1076
  C:9B4EH         LINE#         1077
  C:9B4EH         LINE#         1078
  C:9B62H         LINE#         1079
  C:9B62H         LINE#         1080
  C:9B70H         LINE#         1081
  C:9B70H         LINE#         1082
  C:9B77H         LINE#         1083
  C:9B86H         LINE#         1085
  C:9B88H         LINE#         1086
  C:9B8BH         LINE#         1087
  C:9B8BH         LINE#         1088
  C:9BA1H         LINE#         1089
  C:9BA1H         LINE#         1090
  C:9BAFH         LINE#         1091
  C:9BAFH         LINE#         1092
  C:9BBFH         LINE#         1093
  C:9BBFH         LINE#         1094
  C:9BC1H         LINE#         1095
  C:9BC3H         LINE#         1096
  C:9BC3H         LINE#         1097
BL51 BANKED LINKER/LOCATER V6.22                                                      05/30/2019  12:42:35  PAGE 49


  C:9BC3H         LINE#         1098
  C:9BC3H         LINE#         1099
  C:9BC8H         LINE#         1100
  C:9BCEH         LINE#         1102
  C:9BD1H         LINE#         1103
  C:9BD1H         LINE#         1104
  C:9BD6H         LINE#         1105
  C:9BEEH         LINE#         1106
  C:9BEEH         LINE#         1107
  C:9BF2H         LINE#         1108
  C:9BF8H         LINE#         1109
  C:9BF8H         LINE#         1110
  C:9BFEH         LINE#         1111
  C:9C00H         LINE#         1113
  C:9C00H         LINE#         1114
  C:9C0BH         LINE#         1115
  C:9C12H         LINE#         1116
  C:9C12H         LINE#         1117
  C:9C1DH         LINE#         1118
  C:9C1DH         LINE#         1119
  C:9C22H         LINE#         1120
  C:9C22H         LINE#         1121
  C:9C22H         LINE#         1122
  C:9C22H         LINE#         1123
  C:9C2AH         LINE#         1124
  C:9C2AH         LINE#         1126
  C:9C2AH         LINE#         1127
  C:9C30H         LINE#         1128
  C:9C36H         LINE#         1129
  C:9C38H         LINE#         1131
  C:9C40H         LINE#         1132
  C:9C40H         LINE#         1133
  C:9C43H         LINE#         1134
  C:9C43H         LINE#         1135
  C:9C43H         LINE#         1136
  C:9C43H         LINE#         1137
  C:9C43H         LINE#         1138
  C:9C43H         LINE#         1139
  -------         ENDPROC       PRCSS_OPCODE_ATT_FIND_INFORMATION_RESPONSE
  -------         PROC          PRCSS_OPCODE_ATT_FIND_BY_TYPE_VALUE_REQUEST
  -------         DO            
  X:0ACFH         SYMBOL        Rsp_Error
  X:0AD0H         SYMBOL        Handle_Att_RPT_S
  X:0AD1H         SYMBOL        Handle_Att_RPT_E
  X:0AD2H         SYMBOL        size_uuid
  X:0AD3H         SYMBOL        i
  D:0007H         SYMBOL        idx
  -------         ENDDO         
  C:9813H         LINE#         1144
  C:9813H         LINE#         1145
  C:9813H         LINE#         1153
  C:9816H         LINE#         1154
  C:981EH         LINE#         1155
  C:981EH         LINE#         1156
  C:9823H         LINE#         1157
  C:9823H         LINE#         1158
  C:9823H         LINE#         1159
BL51 BANKED LINKER/LOCATER V6.22                                                      05/30/2019  12:42:35  PAGE 50


  C:9823H         LINE#         1160
  C:9825H         LINE#         1161
  C:982AH         LINE#         1162
  C:982AH         LINE#         1163
  C:982FH         LINE#         1164
  C:982FH         LINE#         1165
  C:9839H         LINE#         1166
  C:9839H         LINE#         1167
  C:983EH         LINE#         1168
  C:983EH         LINE#         1169
  C:9844H         LINE#         1170
  C:9844H         LINE#         1171
  C:984CH         LINE#         1172
  C:984CH         LINE#         1173
  C:9852H         LINE#         1174
  C:9852H         LINE#         1175
  C:9852H         LINE#         1176
  C:985BH         LINE#         1177
  C:985BH         LINE#         1178
  C:985EH         LINE#         1179
  C:9868H         LINE#         1180
  C:9868H         LINE#         1181
  C:986BH         LINE#         1182
  C:986DH         LINE#         1184
  C:986DH         LINE#         1185
  C:9870H         LINE#         1186
  C:9870H         LINE#         1187
  C:9875H         LINE#         1189
  C:9875H         LINE#         1190
  C:9888H         LINE#         1191
  C:9888H         LINE#         1192
  C:9893H         LINE#         1193
  C:9893H         LINE#         1194
  C:98AAH         LINE#         1195
  C:98AAH         LINE#         1196
  C:98ADH         LINE#         1197
  C:98B1H         LINE#         1198
  C:98B1H         LINE#         1199
  C:98CCH         LINE#         1200
  C:98CCH         LINE#         1201
  C:98D4H         LINE#         1202
  C:98D6H         LINE#         1203
  C:98DBH         LINE#         1204
  C:98E1H         LINE#         1205
  C:98E3H         LINE#         1206
  C:98E3H         LINE#         1207
  C:98E3H         LINE#         1208
  C:98E3H         LINE#         1209
  C:98E6H         LINE#         1210
  C:98F1H         LINE#         1211
  C:98F1H         LINE#         1213
  C:98F7H         LINE#         1214
  C:98F7H         LINE#         1216
  C:98F7H         LINE#         1217
  C:990AH         LINE#         1218
  C:990AH         LINE#         1219
  C:990AH         LINE#         1220
BL51 BANKED LINKER/LOCATER V6.22                                                      05/30/2019  12:42:35  PAGE 51


  C:990AH         LINE#         1221
  C:9912H         LINE#         1222
  C:9915H         LINE#         1223
  C:9920H         LINE#         1224
  C:9920H         LINE#         1225
  C:9929H         LINE#         1226
  C:9929H         LINE#         1227
  C:992CH         LINE#         1228
  C:9938H         LINE#         1229
  C:9944H         LINE#         1230
  C:9950H         LINE#         1231
  C:995CH         LINE#         1232
  C:9961H         LINE#         1233
  C:9961H         LINE#         1234
  C:9961H         LINE#         1235
  C:9961H         LINE#         1236
  C:9969H         LINE#         1237
  C:9969H         LINE#         1239
  C:9969H         LINE#         1240
  C:997CH         LINE#         1241
  C:997CH         LINE#         1242
  -------         ENDPROC       PRCSS_OPCODE_ATT_FIND_BY_TYPE_VALUE_REQUEST
  -------         PROC          PRCSS_OPCODE_ATT_FIND_BY_TYPE_VALUE_RESPONSE
  C:BACCH         LINE#         1247
  C:BACCH         LINE#         1248
  C:BACCH         LINE#         1249
  C:BAD4H         LINE#         1250
  C:BAD4H         LINE#         1251
  C:BADCH         LINE#         1252
  C:BAE4H         LINE#         1253
  C:BAECH         LINE#         1254
  C:BAF5H         LINE#         1256
  C:BAFBH         LINE#         1257
  C:BB03H         LINE#         1258
  C:BB0BH         LINE#         1259
  C:BB0EH         LINE#         1260
  C:BB15H         LINE#         1261
  C:BB15H         LINE#         1262
  C:BB15H         LINE#         1263
  C:BB18H         LINE#         1264
  C:BB18H         LINE#         1265
  C:BB18H         LINE#         1266
  C:BB18H         LINE#         1268
  C:BB20H         LINE#         1269
  C:BB26H         LINE#         1270
  C:BB26H         LINE#         1271
  -------         ENDPROC       PRCSS_OPCODE_ATT_FIND_BY_TYPE_VALUE_RESPONSE
  -------         PROC          PRCSS_OPCODE_ATT_READ_BY_TYPE_REQUEST
  -------         DO            
  X:0947H         SYMBOL        Rsp_Error
  D:0006H         SYMBOL        size
  X:0948H         SYMBOL        Handle_Att_RPT_S
  X:0949H         SYMBOL        Handle_Att_RPT_E
  X:094AH         SYMBOL        uuid
  X:095AH         SYMBOL        size_temp
  X:095BH         SYMBOL        size_uuid
  X:095CH         SYMBOL        sizeRSP_PDUlgth
BL51 BANKED LINKER/LOCATER V6.22                                                      05/30/2019  12:42:35  PAGE 52


  X:095DH         SYMBOL        i
  X:095EH         SYMBOL        idx
  -------         ENDDO         
  C:70BDH         LINE#         1276
  C:70BDH         LINE#         1277
  C:70BDH         LINE#         1291
  C:70C0H         LINE#         1293
  C:70C8H         LINE#         1294
  C:70C8H         LINE#         1295
  C:70CDH         LINE#         1296
  C:70CDH         LINE#         1297
  C:70CDH         LINE#         1298
  C:70CDH         LINE#         1299
  C:70CFH         LINE#         1301
  C:70CFH         LINE#         1302
  C:70D4H         LINE#         1303
  C:70D4H         LINE#         1304
  C:70D9H         LINE#         1305
  C:70D9H         LINE#         1306
  C:70D9H         LINE#         1307
  C:70DFH         LINE#         1308
  C:70DFH         LINE#         1309
  C:70E3H         LINE#         1310
  C:70E3H         LINE#         1311
  C:70E8H         LINE#         1312
  C:70E8H         LINE#         1313
  C:70E8H         LINE#         1314
  C:70EEH         LINE#         1315
  C:70EEH         LINE#         1316
  C:70F1H         LINE#         1317
  C:70F6H         LINE#         1319
  C:70F6H         LINE#         1320
  C:7104H         LINE#         1321
  C:7104H         LINE#         1322
  C:7111H         LINE#         1323
  C:7111H         LINE#         1324
  C:7119H         LINE#         1325
  C:711EH         LINE#         1326
  C:7120H         LINE#         1327
  C:7120H         LINE#         1328
  C:7120H         LINE#         1329
  C:7120H         LINE#         1330
  C:712BH         LINE#         1331
  C:712BH         LINE#         1332
  C:7131H         LINE#         1333
  C:7131H         LINE#         1334
  C:7134H         LINE#         1336
  C:7134H         LINE#         1337
  C:713FH         LINE#         1338
  C:713FH         LINE#         1339
  C:714AH         LINE#         1340
  C:714AH         LINE#         1341
  C:7152H         LINE#         1342
  C:7157H         LINE#         1343
  C:7157H         LINE#         1345
  C:7157H         LINE#         1346
  C:7157H         LINE#         1347
BL51 BANKED LINKER/LOCATER V6.22                                                      05/30/2019  12:42:35  PAGE 53


  C:7157H         LINE#         1348
  C:7157H         LINE#         1350
  C:7157H         LINE#         1351
  C:7157H         LINE#         1352
  C:7157H         LINE#         1353
  C:7157H         LINE#         1354
  C:7162H         LINE#         1355
  C:7162H         LINE#         1356
  C:7168H         LINE#         1357
  C:7168H         LINE#         1358
  C:7170H         LINE#         1359
  C:7170H         LINE#         1360
  C:7176H         LINE#         1361
  C:7178H         LINE#         1362
  C:717CH         LINE#         1363
  C:717CH         LINE#         1364
  C:7182H         LINE#         1365
  C:7184H         LINE#         1367
  C:7184H         LINE#         1368
  C:718AH         LINE#         1369
  C:718AH         LINE#         1370
  C:718AH         LINE#         1371
  C:7193H         LINE#         1372
  C:7193H         LINE#         1373
  C:7196H         LINE#         1374
  C:71A6H         LINE#         1375
  C:71A6H         LINE#         1376
  C:71ABH         LINE#         1377
  C:71B3H         LINE#         1378
  C:71C0H         LINE#         1379
  C:71C0H         LINE#         1380
  C:71C4H         LINE#         1381
  C:71F6H         LINE#         1382
  C:71F6H         LINE#         1383
  C:71F8H         LINE#         1384
  C:71F8H         LINE#         1386
  C:71F8H         LINE#         1387
  C:7204H         LINE#         1388
  C:7204H         LINE#         1389
  C:720AH         LINE#         1390
  C:720CH         LINE#         1391
  C:7218H         LINE#         1392
  C:7218H         LINE#         1393
  C:721CH         LINE#         1394
  C:721EH         LINE#         1395
  C:721EH         LINE#         1396
  C:7224H         LINE#         1397
  C:7227H         LINE#         1398
  C:7227H         LINE#         1399
  C:7230H         LINE#         1400
  C:7230H         LINE#         1401
  C:7236H         LINE#         1402
  C:723CH         LINE#         1403
  C:7241H         LINE#         1404
  C:7252H         LINE#         1405
  C:7252H         LINE#         1406
  C:725BH         LINE#         1407
BL51 BANKED LINKER/LOCATER V6.22                                                      05/30/2019  12:42:35  PAGE 54


  C:7268H         LINE#         1408
  C:726CH         LINE#         1409
  C:727AH         LINE#         1410
  C:727AH         LINE#         1411
  C:729FH         LINE#         1412
  C:729FH         LINE#         1413
  C:72A5H         LINE#         1414
  C:72A7H         LINE#         1415
  C:72B6H         LINE#         1416
  C:72B6H         LINE#         1418
  C:72C3H         LINE#         1420
  C:72C5H         LINE#         1421
  C:72C5H         LINE#         1422
  C:72D0H         LINE#         1423
  C:72D2H         LINE#         1424
  C:72D2H         LINE#         1425
  C:72DDH         LINE#         1426
  C:72DDH         LINE#         1427
  C:72DDH         LINE#         1428
  C:72E3H         LINE#         1429
  C:72E3H         LINE#         1430
  C:72E6H         LINE#         1431
  C:72E6H         LINE#         1433
  C:72E6H         LINE#         1434
  C:7305H         LINE#         1435
  C:730CH         LINE#         1436
  C:7322H         LINE#         1437
  C:7322H         LINE#         1438
  C:7326H         LINE#         1439
  C:7326H         LINE#         1440
  C:7328H         LINE#         1442
  C:7328H         LINE#         1443
  C:732DH         LINE#         1444
  C:732DH         LINE#         1445
  C:7334H         LINE#         1446
  C:733CH         LINE#         1447
  C:733CH         LINE#         1449
  C:733CH         LINE#         1450
  C:733CH         LINE#         1451
  C:733CH         LINE#         1452
  C:733CH         LINE#         1453
  C:7342H         LINE#         1454
  C:7342H         LINE#         1455
  C:7356H         LINE#         1456
  C:7359H         LINE#         1457
  C:7368H         LINE#         1458
  C:7368H         LINE#         1459
  C:736FH         LINE#         1460
  C:7376H         LINE#         1461
  C:7378H         LINE#         1462
  C:737EH         LINE#         1463
  C:737EH         LINE#         1464
  C:7390H         LINE#         1465
  C:7390H         LINE#         1466
  C:7396H         LINE#         1467
  C:7397H         LINE#         1468
  C:739DH         LINE#         1469
BL51 BANKED LINKER/LOCATER V6.22                                                      05/30/2019  12:42:35  PAGE 55


  C:739FH         LINE#         1470
  C:739FH         LINE#         1471
  C:739FH         LINE#         1472
  C:739FH         LINE#         1473
  C:73A5H         LINE#         1474
  C:73A8H         LINE#         1475
  C:73A8H         LINE#         1476
  C:73AEH         LINE#         1477
  C:73AEH         LINE#         1478
  C:73B2H         LINE#         1479
  C:73B2H         LINE#         1480
  C:73B6H         LINE#         1481
  C:73B9H         LINE#         1482
  C:73BDH         LINE#         1483
  C:73E1H         LINE#         1484
  C:73EDH         LINE#         1485
  C:73EDH         LINE#         1486
  C:73F2H         LINE#         1487
  C:73F2H         LINE#         1488
  C:73FFH         LINE#         1489
  C:73FFH         LINE#         1491
  C:73FFH         LINE#         1492
  C:7415H         LINE#         1493
  C:7415H         LINE#         1494
  -------         ENDPROC       PRCSS_OPCODE_ATT_READ_BY_TYPE_REQUEST
  -------         PROC          PRCSS_OPCODE_ATT_READ_BY_TYPE_RESPONSE
  -------         DO            
  B:0028H.5       SYMBOL        Rsp_Error
  X:0B46H         SYMBOL        i
  D:0004H         SYMBOL        j
  -------         ENDDO         
  C:8255H         LINE#         1499
  C:8255H         LINE#         1500
  C:8255H         LINE#         1504
  C:826BH         LINE#         1505
  C:826BH         LINE#         1506
  C:826DH         LINE#         1507
  C:8274H         LINE#         1509
  C:8274H         LINE#         1510
  C:8282H         LINE#         1511
  C:8282H         LINE#         1512
  C:8289H         LINE#         1513
  C:8289H         LINE#         1514
  C:828BH         LINE#         1515
  C:828BH         LINE#         1516
  C:82B3H         LINE#         1517
  C:82B3H         LINE#         1519
  C:82B3H         LINE#         1520
  C:82B3H         LINE#         1521
  C:82BEH         LINE#         1522
  C:82C4H         LINE#         1523
  C:82C4H         LINE#         1524
  C:82C6H         LINE#         1525
  C:82C8H         LINE#         1526
  C:82C8H         LINE#         1527
  C:82C8H         LINE#         1528
  C:82C8H         LINE#         1529
BL51 BANKED LINKER/LOCATER V6.22                                                      05/30/2019  12:42:35  PAGE 56


  C:82CEH         LINE#         1530
  C:82DAH         LINE#         1532
  C:82E0H         LINE#         1533
  C:82E0H         LINE#         1534
  C:82ECH         LINE#         1535
  C:82FBH         LINE#         1536
  C:830BH         LINE#         1537
  C:831DH         LINE#         1538
  C:832FH         LINE#         1540
  C:8338H         LINE#         1541
  C:8347H         LINE#         1543
  C:834DH         LINE#         1545
  C:8353H         LINE#         1546
  C:8353H         LINE#         1547
  C:835FH         LINE#         1548
  C:835FH         LINE#         1549
  C:8364H         LINE#         1550
  C:8364H         LINE#         1551
  C:8364H         LINE#         1552
  C:8364H         LINE#         1553
  C:8364H         LINE#         1554
  C:8364H         LINE#         1555
  C:8364H         LINE#         1556
  C:8364H         LINE#         1557
  C:8364H         LINE#         1558
  C:8364H         LINE#         1559
  C:8364H         LINE#         1560
  C:8364H         LINE#         1561
  C:8364H         LINE#         1563
  C:8364H         LINE#         1564
  C:8367H         LINE#         1566
  C:8367H         LINE#         1567
  C:8375H         LINE#         1568
  C:8375H         LINE#         1569
  C:8375H         LINE#         1570
  C:837AH         LINE#         1571
  C:837AH         LINE#         1572
  C:837AH         LINE#         1573
  C:837EH         LINE#         1574
  C:8381H         LINE#         1575
  C:8384H         LINE#         1576
  C:8387H         LINE#         1578
  C:8387H         LINE#         1579
  C:8387H         LINE#         1580
  C:8387H         LINE#         1581
  C:8387H         LINE#         1582
  C:838BH         LINE#         1583
  C:838BH         LINE#         1584
  C:838BH         LINE#         1585
  C:838BH         LINE#         1586
  C:838BH         LINE#         1587
  C:838BH         LINE#         1588
  C:838BH         LINE#         1589
  C:838EH         LINE#         1600
  C:838EH         LINE#         1601
  C:8399H         LINE#         1602
  C:8399H         LINE#         1603
BL51 BANKED LINKER/LOCATER V6.22                                                      05/30/2019  12:42:35  PAGE 57


  C:8399H         LINE#         1604
  C:839EH         LINE#         1605
  C:839EH         LINE#         1606
  C:839EH         LINE#         1607
  C:83A2H         LINE#         1608
  C:83A5H         LINE#         1609
  C:83A8H         LINE#         1610
  C:83AAH         LINE#         1612
  C:83AAH         LINE#         1613
  C:83AAH         LINE#         1614
  C:83AAH         LINE#         1615
  C:83AAH         LINE#         1616
  C:83AEH         LINE#         1617
  C:83AEH         LINE#         1618
  C:83AEH         LINE#         1619
  C:83AEH         LINE#         1620
  C:83AEH         LINE#         1621
  C:83AEH         LINE#         1622
  C:83AEH         LINE#         1623
  C:83B1H         LINE#         1625
  C:83B1H         LINE#         1626
  C:83B1H         LINE#         1627
  C:83B1H         LINE#         1628
  C:83B1H         LINE#         1629
  C:83B1H         LINE#         1630
  C:83B1H         LINE#         1631
  C:83B4H         LINE#         1632
  C:83BFH         LINE#         1633
  C:83BFH         LINE#         1634
  C:83CDH         LINE#         1635
  C:83CDH         LINE#         1636
  C:83CDH         LINE#         1637
  C:83D2H         LINE#         1638
  C:83D2H         LINE#         1639
  C:83D2H         LINE#         1640
  C:83D6H         LINE#         1641
  C:83D9H         LINE#         1642
  C:83DCH         LINE#         1643
  C:83DEH         LINE#         1645
  C:83DEH         LINE#         1646
  C:83DEH         LINE#         1647
  C:83DEH         LINE#         1648
  C:83DEH         LINE#         1649
  C:83E2H         LINE#         1650
  C:83E2H         LINE#         1651
  C:83E2H         LINE#         1652
  C:83E2H         LINE#         1653
  C:83E2H         LINE#         1654
  C:83E2H         LINE#         1655
  C:83E2H         LINE#         1656
  C:83E2H         LINE#         1657
  C:83E2H         LINE#         1658
  C:83E5H         LINE#         1660
  C:83E5H         LINE#         1661
  C:83F2H         LINE#         1662
  C:83F2H         LINE#         1663
  C:83F7H         LINE#         1664
BL51 BANKED LINKER/LOCATER V6.22                                                      05/30/2019  12:42:35  PAGE 58


  C:83F7H         LINE#         1665
  C:83FDH         LINE#         1666
  C:8406H         LINE#         1667
  C:840EH         LINE#         1668
  C:8411H         LINE#         1669
  C:8413H         LINE#         1670
  C:8413H         LINE#         1671
  C:8413H         LINE#         1672
  C:8416H         LINE#         1673
  C:8416H         LINE#         1674
  C:8416H         LINE#         1675
  C:8416H         LINE#         1677
  C:841BH         LINE#         1678
  C:841EH         LINE#         1680
  C:841EH         LINE#         1681
  C:8429H         LINE#         1682
  C:8429H         LINE#         1683
  C:8429H         LINE#         1684
  C:842EH         LINE#         1685
  C:842EH         LINE#         1686
  C:842EH         LINE#         1687
  C:8432H         LINE#         1688
  C:8435H         LINE#         1689
  C:8438H         LINE#         1690
  C:843AH         LINE#         1692
  C:843AH         LINE#         1693
  C:843AH         LINE#         1694
  C:843AH         LINE#         1695
  C:843AH         LINE#         1696
  C:843EH         LINE#         1697
  C:843EH         LINE#         1698
  C:8443H         LINE#         1699
  C:8443H         LINE#         1700
  C:8443H         LINE#         1701
  C:8443H         LINE#         1702
  C:8448H         LINE#         1703
  C:844AH         LINE#         1705
  C:844AH         LINE#         1706
  C:844AH         LINE#         1707
  C:844AH         LINE#         1708
  C:844AH         LINE#         1709
  C:844AH         LINE#         1710
  C:844AH         LINE#         1711
  C:844CH         LINE#         1713
  C:844CH         LINE#         1714
  C:8457H         LINE#         1715
  C:8457H         LINE#         1716
  C:8457H         LINE#         1717
  C:845CH         LINE#         1718
  C:845CH         LINE#         1719
  C:845CH         LINE#         1720
  C:8460H         LINE#         1721
  C:8463H         LINE#         1722
  C:8466H         LINE#         1723
  C:8468H         LINE#         1725
  C:8468H         LINE#         1726
  C:8468H         LINE#         1727
BL51 BANKED LINKER/LOCATER V6.22                                                      05/30/2019  12:42:35  PAGE 59


  C:8468H         LINE#         1728
  C:8468H         LINE#         1729
  C:846CH         LINE#         1730
  C:846CH         LINE#         1731
  C:8471H         LINE#         1732
  C:8471H         LINE#         1733
  C:8471H         LINE#         1734
  C:8471H         LINE#         1735
  C:8479H         LINE#         1736
  C:8479H         LINE#         1738
  C:8479H         LINE#         1739
  C:8479H         LINE#         1740
  C:8479H         LINE#         1741
  C:847CH         LINE#         1742
  C:847CH         LINE#         1743
  C:847CH         LINE#         1744
  C:847CH         LINE#         1745
  C:847CH         LINE#         1746
  -------         ENDPROC       PRCSS_OPCODE_ATT_READ_BY_TYPE_RESPONSE
  -------         PROC          PRCSS_OPCODE_ATT_READ_REQUEST
  -------         DO            
  X:0B05H         SYMBOL        Rsp_Error
  X:0B06H         SYMBOL        i
  X:0B07H         SYMBOL        idx
  X:0B08H         SYMBOL        sizeRSP_PDUlgth
  -------         ENDDO         
  C:A46AH         LINE#         1751
  C:A46AH         LINE#         1752
  C:A46AH         LINE#         1757
  C:A470H         LINE#         1758
  C:A473H         LINE#         1760
  C:A473H         LINE#         1761
  C:A480H         LINE#         1762
  C:A480H         LINE#         1763
  C:A48CH         LINE#         1764
  C:A48CH         LINE#         1765
  C:A490H         LINE#         1766
  C:A492H         LINE#         1767
  C:A492H         LINE#         1768
  C:A492H         LINE#         1769
  C:A495H         LINE#         1770
  C:A4A0H         LINE#         1771
  C:A4A6H         LINE#         1772
  C:A4A6H         LINE#         1773
  C:A4B1H         LINE#         1774
  C:A4B1H         LINE#         1775
  C:A4B7H         LINE#         1776
  C:A4B7H         LINE#         1777
  C:A4C2H         LINE#         1778
  C:A4C4H         LINE#         1779
  C:A4C4H         LINE#         1780
  C:A4CFH         LINE#         1781
  C:A4CFH         LINE#         1782
  C:A4CFH         LINE#         1783
  C:A4D6H         LINE#         1784
  C:A4D6H         LINE#         1785
  C:A4DEH         LINE#         1786
BL51 BANKED LINKER/LOCATER V6.22                                                      05/30/2019  12:42:35  PAGE 60


  C:A4DEH         LINE#         1788
  C:A4DEH         LINE#         1789
  C:A4E3H         LINE#         1790
  C:A4E6H         LINE#         1791
  C:A508H         LINE#         1792
  C:A510H         LINE#         1793
  C:A51EH         LINE#         1794
  C:A51EH         LINE#         1795
  C:A536H         LINE#         1796
  C:A53CH         LINE#         1797
  C:A540H         LINE#         1798
  C:A54EH         LINE#         1799
  C:A54EH         LINE#         1800
  C:A54EH         LINE#         1801
  C:A54EH         LINE#         1803
  C:A554H         LINE#         1804
  C:A559H         LINE#         1805
  C:A559H         LINE#         1806
  C:A559H         LINE#         1807
  C:A559H         LINE#         1808
  C:A563H         LINE#         1809
  C:A563H         LINE#         1810
  -------         ENDPROC       PRCSS_OPCODE_ATT_READ_REQUEST
  -------         PROC          PRCSS_OPCODE_ATT_READ_RESPONSE
  C:0341H         LINE#         1815
  C:0341H         LINE#         1816
  C:0341H         LINE#         1817
  -------         ENDPROC       PRCSS_OPCODE_ATT_READ_RESPONSE
  -------         PROC          PRCSS_OPCODE_ATT_READ_BLOB_REQUEST
  -------         DO            
  B:0028H.6       SYMBOL        Rsp_Flag
  X:0A95H         SYMBOL        Rsp_Error
  X:0A96H         SYMBOL        i
  X:0A97H         SYMBOL        idx
  X:0A98H         SYMBOL        idx_AttTypeSize
  X:0A99H         SYMBOL        sizeRSP_PDUlgth
  X:0A9AH         SYMBOL        j
  -------         ENDDO         
  C:997DH         LINE#         1822
  C:997DH         LINE#         1823
  C:997DH         LINE#         1831
  C:997FH         LINE#         1832
  C:9985H         LINE#         1833
  C:9988H         LINE#         1835
  C:9988H         LINE#         1836
  C:9995H         LINE#         1837
  C:9995H         LINE#         1838
  C:99A1H         LINE#         1839
  C:99A1H         LINE#         1840
  C:99A5H         LINE#         1841
  C:99A7H         LINE#         1842
  C:99A7H         LINE#         1843
  C:99A7H         LINE#         1844
  C:99AAH         LINE#         1845
  C:99B5H         LINE#         1846
  C:99BBH         LINE#         1847
  C:99BBH         LINE#         1848
BL51 BANKED LINKER/LOCATER V6.22                                                      05/30/2019  12:42:35  PAGE 61


  C:99C6H         LINE#         1849
  C:99C6H         LINE#         1850
  C:99CCH         LINE#         1851
  C:99CCH         LINE#         1852
  C:99D7H         LINE#         1853
  C:99D9H         LINE#         1854
  C:99D9H         LINE#         1855
  C:99E4H         LINE#         1856
  C:99E4H         LINE#         1857
  C:99E4H         LINE#         1858
  C:99EAH         LINE#         1859
  C:99EAH         LINE#         1860
  C:9A0AH         LINE#         1861
  C:9A12H         LINE#         1862
  C:9A1EH         LINE#         1863
  C:9A1EH         LINE#         1864
  C:9A24H         LINE#         1865
  C:9A24H         LINE#         1866
  C:9A2AH         LINE#         1867
  C:9A2AH         LINE#         1868
  C:9A2AH         LINE#         1869
  C:9A2AH         LINE#         1870
  C:9A30H         LINE#         1871
  C:9A30H         LINE#         1872
  C:9A3EH         LINE#         1873
  C:9A3EH         LINE#         1874
  C:9A44H         LINE#         1875
  C:9A46H         LINE#         1877
  C:9A46H         LINE#         1878
  C:9A4AH         LINE#         1879
  C:9A4AH         LINE#         1880
  C:9A4CH         LINE#         1881
  C:9A4CH         LINE#         1882
  C:9A4CH         LINE#         1883
  C:9A4CH         LINE#         1884
  C:9A4CH         LINE#         1885
  C:9A54H         LINE#         1886
  C:9A56H         LINE#         1887
  C:9A56H         LINE#         1888
  C:9A56H         LINE#         1889
  C:9A56H         LINE#         1890
  C:9A5CH         LINE#         1891
  C:9A5CH         LINE#         1892
  C:9A63H         LINE#         1893
  C:9A63H         LINE#         1894
  C:9A6BH         LINE#         1895
  C:9A6BH         LINE#         1897
  C:9A6BH         LINE#         1898
  C:9A70H         LINE#         1899
  C:9A75H         LINE#         1900
  C:9A7DH         LINE#         1901
  C:9A9AH         LINE#         1902
  C:9A9AH         LINE#         1903
  C:9AB7H         LINE#         1904
  C:9ABDH         LINE#         1905
  C:9AC3H         LINE#         1906
  C:9AD1H         LINE#         1907
BL51 BANKED LINKER/LOCATER V6.22                                                      05/30/2019  12:42:35  PAGE 62


  C:9AD1H         LINE#         1908
  C:9AD1H         LINE#         1909
  C:9AD1H         LINE#         1912
  C:9AD7H         LINE#         1913
  C:9ADCH         LINE#         1914
  C:9ADCH         LINE#         1915
  C:9ADCH         LINE#         1916
  C:9ADCH         LINE#         1917
  C:9AE6H         LINE#         1918
  C:9AE6H         LINE#         1919
  C:9AE6H         LINE#         1920
  -------         ENDPROC       PRCSS_OPCODE_ATT_READ_BLOB_REQUEST
  -------         PROC          PRCSS_OPCODE_ATT_READ_BLOB_RESPONSE
  C:0342H         LINE#         1925
  C:0342H         LINE#         1926
  C:0342H         LINE#         1927
  -------         ENDPROC       PRCSS_OPCODE_ATT_READ_BLOB_RESPONSE
  -------         PROC          PRCSS_OPCODE_ATT_READ_MULTIPLE_REQUEST
  C:CBADH         LINE#         1932
  C:CBADH         LINE#         1933
  C:CBADH         LINE#         1934
  -------         ENDPROC       PRCSS_OPCODE_ATT_READ_MULTIPLE_REQUEST
  -------         PROC          PRCSS_OPCODE_ATT_READ_MULTIPLE_RESPONSE
  C:0349H         LINE#         1940
  C:0349H         LINE#         1941
  C:0349H         LINE#         1942
  -------         ENDPROC       PRCSS_OPCODE_ATT_READ_MULTIPLE_RESPONSE
  C:6D2CH         SYMBOL        L?1438
  -------         PROC          PRCSS_OPCODE_ATT_READ_BY_GROUP_TYPE_REQUEST
  -------         DO            
  X:092EH         SYMBOL        Rsp_Error
  X:092FH         SYMBOL        size_each_Att_Data
  X:0930H         SYMBOL        Handle_Att_RPT_S
  X:0931H         SYMBOL        Handle_Att_RPT_E
  X:0932H         SYMBOL        uuid
  X:0942H         SYMBOL        size_temp
  X:0943H         SYMBOL        size_uuid
  X:0944H         SYMBOL        sizeRSP_PDUlgth
  X:0945H         SYMBOL        i
  X:0946H         SYMBOL        idx
  -------         ENDDO         
  C:69AEH         LINE#         1947
  C:69AEH         LINE#         1948
  C:69AEH         LINE#         1960
  C:69B1H         LINE#         1961
  C:69B9H         LINE#         1962
  C:69B9H         LINE#         1963
  C:69BEH         LINE#         1964
  C:69BEH         LINE#         1965
  C:69BEH         LINE#         1966
  C:69BEH         LINE#         1967
  C:69C0H         LINE#         1968
  C:69C5H         LINE#         1969
  C:69C5H         LINE#         1970
  C:69CAH         LINE#         1971
  C:69CAH         LINE#         1972
  C:69D4H         LINE#         1973
BL51 BANKED LINKER/LOCATER V6.22                                                      05/30/2019  12:42:35  PAGE 63


  C:69D4H         LINE#         1974
  C:69D9H         LINE#         1975
  C:69D9H         LINE#         1976
  C:69DFH         LINE#         1977
  C:69DFH         LINE#         1978
  C:69E2H         LINE#         1979
  C:69E7H         LINE#         1981
  C:69E7H         LINE#         1982
  C:69F2H         LINE#         1983
  C:69F2H         LINE#         1984
  C:69FFH         LINE#         1985
  C:69FFH         LINE#         1986
  C:6A07H         LINE#         1987
  C:6A09H         LINE#         1988
  C:6A09H         LINE#         1989
  C:6A09H         LINE#         1990
  C:6A0CH         LINE#         1991
  C:6A17H         LINE#         1992
  C:6A27H         LINE#         1993
  C:6A27H         LINE#         1995
  C:6A27H         LINE#         1996
  C:6A2FH         LINE#         1997
  C:6A2FH         LINE#         1998
  C:6A3AH         LINE#         1999
  C:6A3AH         LINE#         2000
  C:6A42H         LINE#         2001
  C:6A47H         LINE#         2002
  C:6A47H         LINE#         2004
  C:6A47H         LINE#         2005
  C:6A47H         LINE#         2006
  C:6A47H         LINE#         2007
  C:6A47H         LINE#         2009
  C:6A47H         LINE#         2010
  C:6A47H         LINE#         2011
  C:6A47H         LINE#         2012
  C:6A4AH         LINE#         2013
  C:6A55H         LINE#         2014
  C:6A55H         LINE#         2015
  C:6A55H         LINE#         2016
  C:6A5BH         LINE#         2017
  C:6A5BH         LINE#         2018
  C:6A63H         LINE#         2019
  C:6A63H         LINE#         2020
  C:6A69H         LINE#         2021
  C:6A6BH         LINE#         2022
  C:6A6FH         LINE#         2023
  C:6A6FH         LINE#         2024
  C:6A75H         LINE#         2025
  C:6A77H         LINE#         2027
  C:6A77H         LINE#         2028
  C:6A7DH         LINE#         2029
  C:6A7DH         LINE#         2030
  C:6A7DH         LINE#         2031
  C:6A86H         LINE#         2032
  C:6A86H         LINE#         2033
  C:6A89H         LINE#         2034
  C:6A8EH         LINE#         2035
BL51 BANKED LINKER/LOCATER V6.22                                                      05/30/2019  12:42:35  PAGE 64


  C:6A96H         LINE#         2036
  C:6AA3H         LINE#         2037
  C:6AA3H         LINE#         2038
  C:6AA7H         LINE#         2039
  C:6AC2H         LINE#         2040
  C:6AC8H         LINE#         2041
  C:6ACAH         LINE#         2042
  C:6ACEH         LINE#         2043
  C:6ACEH         LINE#         2044
  C:6ADDH         LINE#         2045
  C:6ADDH         LINE#         2046
  C:6AE2H         LINE#         2047
  C:6AE2H         LINE#         2048
  C:6AE4H         LINE#         2050
  C:6AE4H         LINE#         2051
  C:6AF3H         LINE#         2052
  C:6AF3H         LINE#         2053
  C:6AFDH         LINE#         2054
  C:6AFDH         LINE#         2055
  C:6B0DH         LINE#         2056
  C:6B0DH         LINE#         2057
  C:6B22H         LINE#         2058
  C:6B22H         LINE#         2059
  C:6B2AH         LINE#         2060
  C:6B2EH         LINE#         2061
  C:6B2EH         LINE#         2062
  C:6B33H         LINE#         2063
  C:6B3BH         LINE#         2064
  C:6B43H         LINE#         2065
  C:6B43H         LINE#         2066
  C:6B43H         LINE#         2067
  C:6B43H         LINE#         2068
  C:6B43H         LINE#         2069
  C:6B43H         LINE#         2070
  C:6B49H         LINE#         2071
  C:6B49H         LINE#         2072
  C:6B4CH         LINE#         2073
  C:6B51H         LINE#         2074
  C:6B51H         LINE#         2075
  C:6B59H         LINE#         2076
  C:6B59H         LINE#         2077
  C:6B72H         LINE#         2078
  C:6B72H         LINE#         2079
  C:6B76H         LINE#         2080
  C:6B78H         LINE#         2081
  C:6B78H         LINE#         2082
  C:6B78H         LINE#         2083
  C:6B7EH         LINE#         2084
  C:6B80H         LINE#         2086
  C:6B80H         LINE#         2087
  C:6B87H         LINE#         2088
  C:6B87H         LINE#         2089
  C:6B8FH         LINE#         2090
  C:6B8FH         LINE#         2092
  C:6B8FH         LINE#         2093
  C:6B95H         LINE#         2094
  C:6B9BH         LINE#         2095
BL51 BANKED LINKER/LOCATER V6.22                                                      05/30/2019  12:42:35  PAGE 65


  C:6BA3H         LINE#         2096
  C:6BA3H         LINE#         2097
  C:6BAEH         LINE#         2098
  C:6BAEH         LINE#         2099
  C:6BCBH         LINE#         2100
  C:6BCBH         LINE#         2101
  C:6BCFH         LINE#         2102
  C:6BD1H         LINE#         2103
  C:6BD1H         LINE#         2104
  C:6BD4H         LINE#         2105
  C:6BD4H         LINE#         2107
  C:6BD4H         LINE#         2108
  C:6BF7H         LINE#         2109
  C:6C0CH         LINE#         2110
  C:6C0CH         LINE#         2111
  C:6C14H         LINE#         2112
  C:6C26H         LINE#         2113
  C:6C26H         LINE#         2114
  C:6C2FH         LINE#         2115
  C:6C2FH         LINE#         2116
  C:6C36H         LINE#         2117
  C:6C41H         LINE#         2118
  C:6C41H         LINE#         2119
  C:6C4AH         LINE#         2120
  C:6C59H         LINE#         2121
  C:6C59H         LINE#         2122
  C:6C71H         LINE#         2123
  C:6C71H         LINE#         2124
  C:6C77H         LINE#         2125
  C:6C79H         LINE#         2126
  C:6C79H         LINE#         2127
  C:6C7FH         LINE#         2128
  C:6C81H         LINE#         2129
  C:6C81H         LINE#         2131
  C:6C81H         LINE#         2132
  C:6C89H         LINE#         2133
  C:6C89H         LINE#         2134
  C:6C96H         LINE#         2135
  C:6C96H         LINE#         2136
  C:6C9FH         LINE#         2137
  C:6C9FH         LINE#         2138
  C:6CA6H         LINE#         2139
  C:6CADH         LINE#         2140
  C:6CB2H         LINE#         2141
  C:6CB8H         LINE#         2142
  C:6CB8H         LINE#         2143
  C:6CCAH         LINE#         2144
  C:6CCAH         LINE#         2145
  C:6CD0H         LINE#         2146
  C:6CD6H         LINE#         2147
  C:6CDCH         LINE#         2148
  C:6CDEH         LINE#         2149
  C:6CE7H         LINE#         2150
  C:6CEDH         LINE#         2151
  C:6CF2H         LINE#         2152
  C:6CF2H         LINE#         2154
  C:6CF2H         LINE#         2155
BL51 BANKED LINKER/LOCATER V6.22                                                      05/30/2019  12:42:35  PAGE 66


  C:6CF2H         LINE#         2156
  C:6CF2H         LINE#         2157
  C:6CF2H         LINE#         2158
  C:6CF2H         LINE#         2159
  C:6CF2H         LINE#         2160
  C:6CF8H         LINE#         2161
  C:6CFBH         LINE#         2162
  C:6D01H         LINE#         2163
  C:6D1CH         LINE#         2164
  C:6D21H         LINE#         2165
  C:6D21H         LINE#         2166
  C:6D21H         LINE#         2167
  C:6D21H         LINE#         2168
  C:6D2BH         LINE#         2169
  C:6D2BH         LINE#         2170
  -------         ENDPROC       PRCSS_OPCODE_ATT_READ_BY_GROUP_TYPE_REQUEST
  -------         PROC          PRCSS_OPCODE_ATT_READ_BY_GROUP_TYPE_RESPONSE
  C:034AH         LINE#         2175
  C:034AH         LINE#         2176
  C:034AH         LINE#         2177
  -------         ENDPROC       PRCSS_OPCODE_ATT_READ_BY_GROUP_TYPE_RESPONSE
  C:4FDCH         SYMBOL        L?1282
  C:4FE8H         SYMBOL        L?1301
  C:4FF4H         SYMBOL        L?1380
  -------         PROC          PRCSS_OPCODE_ATT_WRITE_REQUEST
  -------         DO            
  X:0A9BH         SYMBOL        Rsp_Error
  X:0A9CH         SYMBOL        i
  X:0A9DH         SYMBOL        idx
  X:0A9EH         SYMBOL        tmp
  D:000DH         SYMBOL        BackupEA
  -------         ENDDO         
  C:4C6FH         LINE#         2182
  C:4C6FH         LINE#         2183
  C:4C6FH         LINE#         2187
  C:4C72H         LINE#         2189
  C:4C78H         LINE#         2190
  C:4C7BH         LINE#         2192
  C:4C7BH         LINE#         2193
  C:4C88H         LINE#         2194
  C:4C88H         LINE#         2195
  C:4C94H         LINE#         2196
  C:4C94H         LINE#         2197
  C:4C98H         LINE#         2198
  C:4C9AH         LINE#         2199
  C:4C9AH         LINE#         2200
  C:4C9AH         LINE#         2201
  C:4C9DH         LINE#         2202
  C:4CA8H         LINE#         2203
  C:4CAEH         LINE#         2204
  C:4CAEH         LINE#         2205
  C:4CB9H         LINE#         2206
  C:4CB9H         LINE#         2207
  C:4CBFH         LINE#         2208
  C:4CBFH         LINE#         2209
  C:4CD4H         LINE#         2210
  C:4CD4H         LINE#         2211
BL51 BANKED LINKER/LOCATER V6.22                                                      05/30/2019  12:42:35  PAGE 67


  C:4CDAH         LINE#         2212
  C:4CDAH         LINE#         2213
  C:4CDAH         LINE#         2214
  C:4CE0H         LINE#         2215
  C:4CE0H         LINE#         2216
  C:4CEBH         LINE#         2217
  C:4CEBH         LINE#         2218
  C:4CFDH         LINE#         2219
  C:4CFDH         LINE#         2220
  C:4D11H         LINE#         2221
  C:4D11H         LINE#         2222
  C:4D20H         LINE#         2223
  C:4D20H         LINE#         2224
  C:4D26H         LINE#         2225
  C:4D28H         LINE#         2227
  C:4D28H         LINE#         2228
  C:4D2BH         LINE#         2229
  C:4D2BH         LINE#         2230
  C:4D31H         LINE#         2231
  C:4D31H         LINE#         2232
  C:4D31H         LINE#         2233
  C:4D31H         LINE#         2234
  C:4D31H         LINE#         2235
  C:4D31H         LINE#         2236
  C:4D31H         LINE#         2237
  C:4D37H         LINE#         2238
  C:4D37H         LINE#         2239
  C:4D42H         LINE#         2240
  C:4D44H         LINE#         2241
  C:4D44H         LINE#         2242
  C:4D64H         LINE#         2243
  C:4D64H         LINE#         2244
  C:4D64H         LINE#         2245
  C:4D6BH         LINE#         2246
  C:4D6BH         LINE#         2247
  C:4D73H         LINE#         2248
  C:4D73H         LINE#         2250
  C:4D73H         LINE#         2251
  C:4D84H         LINE#         2252
  C:4D84H         LINE#         2253
  C:4D94H         LINE#         2254
  C:4D9CH         LINE#         2255
  C:4DABH         LINE#         2256
  C:4DABH         LINE#         2257
  C:4DD0H         LINE#         2258
  C:4DD0H         LINE#         2260
  C:4DD0H         LINE#         2262
  C:4DD7H         LINE#         2264
  C:4DE0H         LINE#         2266
  C:4DE2H         LINE#         2267
  C:4DE2H         LINE#         2268
  C:4DE2H         LINE#         2269
  C:4DE2H         LINE#         2270
  C:4DE2H         LINE#         2271
  C:4DEAH         LINE#         2273
  C:4DF2H         LINE#         2274
  C:4DF2H         LINE#         2275
BL51 BANKED LINKER/LOCATER V6.22                                                      05/30/2019  12:42:35  PAGE 68


  C:4DFFH         LINE#         2276
  C:4DFFH         LINE#         2277
  C:4E0FH         LINE#         2278
  C:4E0FH         LINE#         2279
  C:4E29H         LINE#         2280
  C:4E29H         LINE#         2281
  C:4E29H         LINE#         2282
  C:4E29H         LINE#         2283
  C:4E29H         LINE#         2284
  C:4E32H         LINE#         2285
  C:4E45H         LINE#         2286
  C:4E45H         LINE#         2287
  C:4E4BH         LINE#         2288
  C:4E53H         LINE#         2289
  C:4E53H         LINE#         2290
  C:4E59H         LINE#         2291
  C:4E61H         LINE#         2292
  C:4E61H         LINE#         2293
  C:4E61H         LINE#         2295
  C:4E61H         LINE#         2296
  C:4E67H         LINE#         2297
  C:4E75H         LINE#         2299
  C:4E7AH         LINE#         2300
  C:4E7AH         LINE#         2301
  C:4E84H         LINE#         2302
  C:4E84H         LINE#         2303
  C:4E89H         LINE#         2304
  C:4E93H         LINE#         2305
  C:4E93H         LINE#         2306
  C:4E9AH         LINE#         2307
  C:4EA0H         LINE#         2308
  C:4EA3H         LINE#         2309
  C:4EA5H         LINE#         2310
  C:4EB0H         LINE#         2311
  C:4EBAH         LINE#         2312
  C:4EBAH         LINE#         2313
  C:4EC1H         LINE#         2314
  C:4EC7H         LINE#         2315
  C:4ECFH         LINE#         2316
  C:4ECFH         LINE#         2317
  C:4ECFH         LINE#         2318
  C:4ED2H         LINE#         2320
  C:4ED2H         LINE#         2321
  C:4EE0H         LINE#         2322
  C:4EE0H         LINE#         2323
  C:4EE8H         LINE#         2324
  C:4EE8H         LINE#         2325
  C:4EEEH         LINE#         2326
  C:4EF8H         LINE#         2327
  C:4EF8H         LINE#         2328
  C:4F03H         LINE#         2329
  C:4F09H         LINE#         2330
  C:4F0CH         LINE#         2331
  C:4F0EH         LINE#         2332
  C:4F18H         LINE#         2333
  C:4F22H         LINE#         2334
  C:4F22H         LINE#         2335
BL51 BANKED LINKER/LOCATER V6.22                                                      05/30/2019  12:42:35  PAGE 69


  C:4F2CH         LINE#         2336
  C:4F32H         LINE#         2337
  C:4F42H         LINE#         2338
  C:4F48H         LINE#         2339
  C:4F48H         LINE#         2340
  C:4F48H         LINE#         2341
  C:4F48H         LINE#         2343
  C:4F4BH         LINE#         2345
  C:4F53H         LINE#         2346
  C:4F53H         LINE#         2347
  C:4F62H         LINE#         2348
  C:4F62H         LINE#         2349
  C:4F72H         LINE#         2350
  C:4F72H         LINE#         2351
  C:4F7BH         LINE#         2352
  C:4F83H         LINE#         2353
  C:4F83H         LINE#         2354
  C:4F86H         LINE#         2356
  C:4F8CH         LINE#         2357
  C:4F92H         LINE#         2359
  C:4F95H         LINE#         2360
  C:4F9EH         LINE#         2361
  C:4F9EH         LINE#         2362
  C:4F9EH         LINE#         2364
  C:4FAEH         LINE#         2365
  C:4FAEH         LINE#         2366
  C:4FBEH         LINE#         2367
  C:4FBEH         LINE#         2368
  C:4FC7H         LINE#         2369
  C:4FCFH         LINE#         2370
  C:4FCFH         LINE#         2371
  C:4FD2H         LINE#         2372
  C:4FD8H         LINE#         2374
  C:4FDBH         LINE#         2375
  C:4FDBH         LINE#         2376
  C:4FDBH         LINE#         2378
  C:4FDBH         LINE#         2379
  C:4FDBH         LINE#         2380
  C:4FDBH         LINE#         2381
  C:4FDBH         LINE#         2382
  C:4FDBH         LINE#         2383
  -------         ENDPROC       PRCSS_OPCODE_ATT_WRITE_REQUEST
  -------         PROC          PRCSS_OPCODE_ATT_WRITE_RESPONSE
  C:0351H         LINE#         2388
  C:0351H         LINE#         2389
  C:0351H         LINE#         2390
  -------         ENDPROC       PRCSS_OPCODE_ATT_WRITE_RESPONSE
  -------         PROC          PRCSS_OPCODE_ATT_PREPARE_WRITE_REQUEST
  -------         DO            
  X:0B2EH         SYMBOL        Rsp_Error
  X:0B2FH         SYMBOL        i
  X:0B30H         SYMBOL        j
  -------         ENDDO         
  C:9EDAH         LINE#         2395
  C:9EDAH         LINE#         2396
  C:9EDAH         LINE#         2400
  C:9EE0H         LINE#         2401
BL51 BANKED LINKER/LOCATER V6.22                                                      05/30/2019  12:42:35  PAGE 70


  C:9EE3H         LINE#         2403
  C:9EE3H         LINE#         2404
  C:9EF0H         LINE#         2405
  C:9EF0H         LINE#         2406
  C:9EFCH         LINE#         2407
  C:9EFCH         LINE#         2408
  C:9F06H         LINE#         2409
  C:9F06H         LINE#         2410
  C:9F0CH         LINE#         2411
  C:9F0EH         LINE#         2412
  C:9F0EH         LINE#         2413
  C:9F17H         LINE#         2414
  C:9F17H         LINE#         2415
  C:9F1DH         LINE#         2416
  C:9F1FH         LINE#         2417
  C:9F1FH         LINE#         2418
  C:9F1FH         LINE#         2419
  C:9F24H         LINE#         2420
  C:9F26H         LINE#         2421
  C:9F26H         LINE#         2422
  C:9F26H         LINE#         2423
  C:9F29H         LINE#         2424
  C:9F34H         LINE#         2425
  C:9F3AH         LINE#         2426
  C:9F3AH         LINE#         2427
  C:9F45H         LINE#         2428
  C:9F45H         LINE#         2429
  C:9F4BH         LINE#         2430
  C:9F4BH         LINE#         2431
  C:9F56H         LINE#         2432
  C:9F58H         LINE#         2433
  C:9F58H         LINE#         2434
  C:9F78H         LINE#         2435
  C:9F78H         LINE#         2436
  C:9F78H         LINE#         2437
  C:9F7EH         LINE#         2438
  C:9F7EH         LINE#         2439
  C:9F8EH         LINE#         2440
  C:9FB9H         LINE#         2441
  C:9FB9H         LINE#         2442
  C:9FBFH         LINE#         2443
  C:9FC1H         LINE#         2444
  C:9FC1H         LINE#         2445
  C:9FCBH         LINE#         2446
  C:9FD3H         LINE#         2447
  C:9FD3H         LINE#         2448
  C:9FD3H         LINE#         2449
  C:9FDAH         LINE#         2450
  C:9FDAH         LINE#         2451
  C:9FE2H         LINE#         2452
  C:9FE2H         LINE#         2454
  C:9FE2H         LINE#         2455
  C:9FFEH         LINE#         2456
  C:A003H         LINE#         2457
  C:A00CH         LINE#         2458
  C:A00CH         LINE#         2459
  -------         ENDPROC       PRCSS_OPCODE_ATT_PREPARE_WRITE_REQUEST
BL51 BANKED LINKER/LOCATER V6.22                                                      05/30/2019  12:42:35  PAGE 71


  -------         PROC          PRCSS_OPCODE_ATT_PREPARE_WRITE_RESPONSE
  C:0352H         LINE#         2464
  C:0352H         LINE#         2465
  C:0352H         LINE#         2466
  -------         ENDPROC       PRCSS_OPCODE_ATT_PREPARE_WRITE_RESPONSE
  C:7078H         SYMBOL        L?1283
  C:7084H         SYMBOL        L?1302
  C:7090H         SYMBOL        L?1381
  C:709CH         SYMBOL        L?1385
  C:70A9H         SYMBOL        L?1424
  C:70B3H         SYMBOL        L?1490
  -------         PROC          PRCSS_OPCODE_ATT_EXECUTE_WRITE_REQUEST
  -------         DO            
  X:0A72H         SYMBOL        Rsp_Error
  X:0A73H         SYMBOL        i
  X:0A74H         SYMBOL        j
  X:0A75H         SYMBOL        idx
  X:0A76H         SYMBOL        tmp
  D:000EH         SYMBOL        BackupEA
  -------         ENDDO         
  C:6D39H         LINE#         2471
  C:6D39H         LINE#         2472
  C:6D39H         LINE#         2477
  C:6D3FH         LINE#         2479
  C:6D44H         LINE#         2480
  C:6D4FH         LINE#         2481
  C:6D4FH         LINE#         2482
  C:6D53H         LINE#         2483
  C:6D60H         LINE#         2484
  C:6D60H         LINE#         2486
  C:6D60H         LINE#         2487
  C:6D75H         LINE#         2488
  C:6D75H         LINE#         2489
  C:6D8BH         LINE#         2490
  C:6D8BH         LINE#         2491
  C:6DB0H         LINE#         2492
  C:6DB8H         LINE#         2493
  C:6DB8H         LINE#         2494
  C:6DBEH         LINE#         2495
  C:6DC1H         LINE#         2496
  C:6DC1H         LINE#         2497
  C:6DDAH         LINE#         2498
  C:6DE9H         LINE#         2499
  C:6DE9H         LINE#         2500
  C:6DFEH         LINE#         2501
  C:6DFEH         LINE#         2503
  C:6E00H         LINE#         2504
  C:6E08H         LINE#         2505
  C:6E11H         LINE#         2506
  C:6E13H         LINE#         2507
  C:6E13H         LINE#         2508
  C:6E13H         LINE#         2509
  C:6E16H         LINE#         2510
  C:6E24H         LINE#         2511
  C:6E24H         LINE#         2512
  C:6E24H         LINE#         2513
  C:6E2BH         LINE#         2514
BL51 BANKED LINKER/LOCATER V6.22                                                      05/30/2019  12:42:35  PAGE 72


  C:6E2BH         LINE#         2515
  C:6E33H         LINE#         2516
  C:6E36H         LINE#         2518
  C:6E36H         LINE#         2519
  C:6E3BH         LINE#         2520
  C:6E3BH         LINE#         2521
  C:6E3BH         LINE#         2522
  C:6E3BH         LINE#         2523
  C:6E3BH         LINE#         2524
  C:6E43H         LINE#         2526
  C:6E49H         LINE#         2527
  C:6E49H         LINE#         2528
  C:6E51H         LINE#         2529
  C:6E51H         LINE#         2530
  C:6E5EH         LINE#         2531
  C:6E5EH         LINE#         2532
  C:6E6EH         LINE#         2533
  C:6E6EH         LINE#         2534
  C:6E88H         LINE#         2535
  C:6E88H         LINE#         2536
  C:6E88H         LINE#         2537
  C:6E88H         LINE#         2538
  C:6E88H         LINE#         2539
  C:6E91H         LINE#         2540
  C:6EA4H         LINE#         2541
  C:6EA4H         LINE#         2542
  C:6EAAH         LINE#         2543
  C:6EB2H         LINE#         2544
  C:6EB2H         LINE#         2545
  C:6EB8H         LINE#         2546
  C:6EC0H         LINE#         2547
  C:6EC0H         LINE#         2548
  C:6EC0H         LINE#         2550
  C:6EC0H         LINE#         2551
  C:6EC6H         LINE#         2552
  C:6ED4H         LINE#         2554
  C:6ED9H         LINE#         2555
  C:6ED9H         LINE#         2556
  C:6EE3H         LINE#         2557
  C:6EE3H         LINE#         2558
  C:6EE3H         LINE#         2559
  C:6EECH         LINE#         2560
  C:6EECH         LINE#         2561
  C:6EEFH         LINE#         2562
  C:6EF5H         LINE#         2563
  C:6EF5H         LINE#         2564
  C:6EF8H         LINE#         2565
  C:6EFBH         LINE#         2566
  C:6F04H         LINE#         2567
  C:6F04H         LINE#         2568
  C:6F0BH         LINE#         2569
  C:6F11H         LINE#         2570
  C:6F19H         LINE#         2571
  C:6F19H         LINE#         2572
  C:6F19H         LINE#         2573
  C:6F1CH         LINE#         2575
  C:6F1CH         LINE#         2576
BL51 BANKED LINKER/LOCATER V6.22                                                      05/30/2019  12:42:35  PAGE 73


  C:6F27H         LINE#         2577
  C:6F27H         LINE#         2578
  C:6F2FH         LINE#         2579
  C:6F2FH         LINE#         2580
  C:6F35H         LINE#         2581
  C:6F3FH         LINE#         2582
  C:6F3FH         LINE#         2583
  C:6F4AH         LINE#         2584
  C:6F50H         LINE#         2585
  C:6F50H         LINE#         2586
  C:6F53H         LINE#         2587
  C:6F5DH         LINE#         2588
  C:6F67H         LINE#         2589
  C:6F67H         LINE#         2590
  C:6F71H         LINE#         2591
  C:6F77H         LINE#         2592
  C:6F81H         LINE#         2593
  C:6F84H         LINE#         2594
  C:6F84H         LINE#         2595
  C:6F84H         LINE#         2596
  C:6F84H         LINE#         2598
  C:6F87H         LINE#         2600
  C:6F8CH         LINE#         2601
  C:6F8CH         LINE#         2602
  C:6F93H         LINE#         2603
  C:6F93H         LINE#         2604
  C:6F93H         LINE#         2605
  C:6F9CH         LINE#         2606
  C:6F9CH         LINE#         2607
  C:6F9FH         LINE#         2608
  C:6FA5H         LINE#         2609
  C:6FA5H         LINE#         2610
  C:6FA8H         LINE#         2611
  C:6FABH         LINE#         2612
  C:6FB4H         LINE#         2613
  C:6FB4H         LINE#         2614
  C:6FBBH         LINE#         2615
  C:6FC1H         LINE#         2616
  C:6FC9H         LINE#         2617
  C:6FCCH         LINE#         2618
  C:6FCCH         LINE#         2619
  C:6FCCH         LINE#         2621
  C:6FD4H         LINE#         2622
  C:6FD4H         LINE#         2623
  C:6FE3H         LINE#         2624
  C:6FE3H         LINE#         2625
  C:6FF6H         LINE#         2626
  C:6FF6H         LINE#         2627
  C:7005H         LINE#         2628
  C:700DH         LINE#         2629
  C:7010H         LINE#         2630
  C:7013H         LINE#         2632
  C:7019H         LINE#         2633
  C:701FH         LINE#         2635
  C:7022H         LINE#         2636
  C:702BH         LINE#         2637
  C:702BH         LINE#         2638
BL51 BANKED LINKER/LOCATER V6.22                                                      05/30/2019  12:42:35  PAGE 74


  C:702BH         LINE#         2639
  C:703BH         LINE#         2640
  C:703BH         LINE#         2641
  C:704EH         LINE#         2642
  C:704EH         LINE#         2643
  C:7061H         LINE#         2644
  C:7069H         LINE#         2645
  C:706CH         LINE#         2646
  C:706FH         LINE#         2647
  C:7075H         LINE#         2648
  C:7075H         LINE#         2649
  C:7075H         LINE#         2651
  C:7075H         LINE#         2652
  C:7075H         LINE#         2653
  C:7075H         LINE#         2654
  C:7075H         LINE#         2655
  C:7075H         LINE#         2656
  C:7075H         LINE#         2657
  C:7078H         LINE#         2658
  -------         ENDPROC       PRCSS_OPCODE_ATT_EXECUTE_WRITE_REQUEST
  -------         PROC          PRCSS_OPCODE_ATT_EXECUTE_WRITE_RESPONSE
  C:0359H         LINE#         2663
  C:0359H         LINE#         2664
  C:0359H         LINE#         2665
  -------         ENDPROC       PRCSS_OPCODE_ATT_EXECUTE_WRITE_RESPONSE
  -------         PROC          PRCSS_OPCODE_ATT_HANDLE_VALUE_NOTIFICATION
  -------         DO            
  B:0028H.7       SYMBOL        Rsp_Error
  X:0B48H         SYMBOL        i
  X:0B49H         SYMBOL        idx
  -------         ENDDO         
  C:B5F8H         LINE#         2670
  C:B5F8H         LINE#         2671
  C:B5F8H         LINE#         2675
  C:B5FAH         LINE#         2676
  C:B600H         LINE#         2678
  C:B600H         LINE#         2679
  C:B613H         LINE#         2680
  C:B613H         LINE#         2681
  C:B622H         LINE#         2682
  C:B622H         LINE#         2683
  C:B624H         LINE#         2684
  C:B626H         LINE#         2685
  C:B626H         LINE#         2686
  C:B626H         LINE#         2687
  C:B62CH         LINE#         2688
  C:B630H         LINE#         2690
  C:B633H         LINE#         2691
  C:B633H         LINE#         2692
  C:B644H         LINE#         2693
  C:B644H         LINE#         2694
  C:B661H         LINE#         2695
  C:B669H         LINE#         2697
  C:B66BH         LINE#         2699
  C:B672H         LINE#         2701
  C:B67BH         LINE#         2703
  C:B67BH         LINE#         2704
BL51 BANKED LINKER/LOCATER V6.22                                                      05/30/2019  12:42:35  PAGE 75


  -------         ENDPROC       PRCSS_OPCODE_ATT_HANDLE_VALUE_NOTIFICATION
  -------         PROC          PRCSS_OPCODE_ATT_HANDLE_VALUE_INDICATION
  C:035AH         LINE#         2709
  C:035AH         LINE#         2710
  C:035AH         LINE#         2711
  -------         ENDPROC       PRCSS_OPCODE_ATT_HANDLE_VALUE_INDICATION
  -------         PROC          PRCSS_OPCODE_ATT_HANDLE_VALUE_CONFIRMATION
  C:0316H         LINE#         2716
  C:0316H         LINE#         2717
  C:0316H         LINE#         2718
  C:0318H         LINE#         2719
  -------         ENDPROC       PRCSS_OPCODE_ATT_HANDLE_VALUE_CONFIRMATION
  C:65DBH         SYMBOL        L?1284
  C:65E7H         SYMBOL        L?1303
  C:65F3H         SYMBOL        L?1382
  C:65FFH         SYMBOL        L?1386
  C:660CH         SYMBOL        L?1425
  C:6616H         SYMBOL        L?1491
  -------         PROC          PRCSS_OPCODE_ATT_WRITE_COMMAND
  -------         DO            
  X:0AA1H         SYMBOL        Rsp_Error
  X:0AA2H         SYMBOL        i
  X:0AA3H         SYMBOL        idx
  X:0AA4H         SYMBOL        tmp
  D:000FH         SYMBOL        BackupEA
  -------         ENDDO         
  C:6280H         LINE#         2724
  C:6280H         LINE#         2725
  C:6280H         LINE#         2729
  C:6286H         LINE#         2731
  C:628CH         LINE#         2732
  C:628FH         LINE#         2734
  C:628FH         LINE#         2735
  C:629CH         LINE#         2736
  C:629CH         LINE#         2737
  C:62A8H         LINE#         2738
  C:62A8H         LINE#         2739
  C:62ACH         LINE#         2740
  C:62AEH         LINE#         2741
  C:62AEH         LINE#         2742
  C:62AEH         LINE#         2743
  C:62B1H         LINE#         2744
  C:62BCH         LINE#         2745
  C:62C2H         LINE#         2746
  C:62C2H         LINE#         2747
  C:62CDH         LINE#         2748
  C:62CDH         LINE#         2749
  C:62D3H         LINE#         2750
  C:62D3H         LINE#         2751
  C:62E8H         LINE#         2752
  C:62E8H         LINE#         2753
  C:62EEH         LINE#         2754
  C:62EEH         LINE#         2755
  C:62EEH         LINE#         2757
  C:62F4H         LINE#         2758
  C:62F4H         LINE#         2759
  C:62FFH         LINE#         2760
BL51 BANKED LINKER/LOCATER V6.22                                                      05/30/2019  12:42:35  PAGE 76


  C:6301H         LINE#         2761
  C:6301H         LINE#         2762
  C:6321H         LINE#         2763
  C:6321H         LINE#         2764
  C:6321H         LINE#         2765
  C:632AH         LINE#         2766
  C:632AH         LINE#         2767
  C:632AH         LINE#         2769
  C:632AH         LINE#         2770
  C:633BH         LINE#         2771
  C:633BH         LINE#         2772
  C:634BH         LINE#         2773
  C:6353H         LINE#         2774
  C:6362H         LINE#         2775
  C:6362H         LINE#         2776
  C:6387H         LINE#         2777
  C:6387H         LINE#         2779
  C:6387H         LINE#         2781
  C:638EH         LINE#         2783
  C:6397H         LINE#         2785
  C:639FH         LINE#         2786
  C:639FH         LINE#         2787
  C:63ACH         LINE#         2788
  C:63ACH         LINE#         2789
  C:63BCH         LINE#         2790
  C:63BCH         LINE#         2791
  C:63D6H         LINE#         2792
  C:63D6H         LINE#         2793
  C:63D6H         LINE#         2794
  C:63D6H         LINE#         2795
  C:63D6H         LINE#         2796
  C:63DFH         LINE#         2797
  C:63F2H         LINE#         2798
  C:63F2H         LINE#         2799
  C:63F8H         LINE#         2800
  C:6400H         LINE#         2801
  C:6400H         LINE#         2802
  C:6406H         LINE#         2803
  C:640EH         LINE#         2804
  C:640EH         LINE#         2805
  C:640EH         LINE#         2807
  C:640EH         LINE#         2808
  C:6414H         LINE#         2809
  C:6422H         LINE#         2811
  C:6427H         LINE#         2812
  C:6427H         LINE#         2813
  C:6431H         LINE#         2814
  C:6431H         LINE#         2815
  C:6431H         LINE#         2816
  C:643AH         LINE#         2817
  C:643AH         LINE#         2818
  C:643DH         LINE#         2819
  C:6443H         LINE#         2820
  C:6443H         LINE#         2821
  C:6446H         LINE#         2822
  C:6449H         LINE#         2823
  C:6452H         LINE#         2824
BL51 BANKED LINKER/LOCATER V6.22                                                      05/30/2019  12:42:35  PAGE 77


  C:6452H         LINE#         2825
  C:6459H         LINE#         2826
  C:645FH         LINE#         2827
  C:6467H         LINE#         2828
  C:6467H         LINE#         2829
  C:6467H         LINE#         2830
  C:646AH         LINE#         2832
  C:646AH         LINE#         2833
  C:6478H         LINE#         2834
  C:6478H         LINE#         2835
  C:6480H         LINE#         2836
  C:6480H         LINE#         2837
  C:6486H         LINE#         2838
  C:6490H         LINE#         2839
  C:6490H         LINE#         2840
  C:649EH         LINE#         2841
  C:64A4H         LINE#         2842
  C:64A4H         LINE#         2843
  C:64A7H         LINE#         2844
  C:64B1H         LINE#         2845
  C:64BBH         LINE#         2846
  C:64BBH         LINE#         2847
  C:64C8H         LINE#         2848
  C:64CEH         LINE#         2849
  C:64DBH         LINE#         2850
  C:64DEH         LINE#         2851
  C:64DEH         LINE#         2852
  C:64DEH         LINE#         2853
  C:64DEH         LINE#         2855
  C:64E1H         LINE#         2857
  C:64E9H         LINE#         2858
  C:64E9H         LINE#         2859
  C:64F0H         LINE#         2860
  C:64F0H         LINE#         2861
  C:64F0H         LINE#         2862
  C:64F9H         LINE#         2863
  C:64F9H         LINE#         2864
  C:64FCH         LINE#         2865
  C:6502H         LINE#         2866
  C:6502H         LINE#         2867
  C:6505H         LINE#         2868
  C:6508H         LINE#         2869
  C:6511H         LINE#         2870
  C:6511H         LINE#         2871
  C:6518H         LINE#         2872
  C:651EH         LINE#         2873
  C:6526H         LINE#         2874
  C:6529H         LINE#         2875
  C:6529H         LINE#         2876
  C:6529H         LINE#         2878
  C:6531H         LINE#         2879
  C:6531H         LINE#         2880
  C:6540H         LINE#         2881
  C:6540H         LINE#         2882
  C:6555H         LINE#         2883
  C:6555H         LINE#         2884
  C:6568H         LINE#         2885
BL51 BANKED LINKER/LOCATER V6.22                                                      05/30/2019  12:42:35  PAGE 78


  C:6570H         LINE#         2886
  C:6573H         LINE#         2887
  C:6576H         LINE#         2889
  C:657CH         LINE#         2890
  C:6582H         LINE#         2892
  C:6585H         LINE#         2893
  C:658EH         LINE#         2894
  C:658EH         LINE#         2895
  C:658EH         LINE#         2896
  C:659EH         LINE#         2897
  C:659EH         LINE#         2898
  C:65B3H         LINE#         2899
  C:65B3H         LINE#         2900
  C:65C6H         LINE#         2901
  C:65CEH         LINE#         2902
  C:65D1H         LINE#         2903
  C:65D4H         LINE#         2904
  C:65DAH         LINE#         2905
  C:65DAH         LINE#         2906
  C:65DAH         LINE#         2908
  C:65DAH         LINE#         2909
  C:65DAH         LINE#         2910
  C:65DAH         LINE#         2911
  C:65DAH         LINE#         2912
  C:65DAH         LINE#         2913
  -------         ENDPROC       PRCSS_OPCODE_ATT_WRITE_COMMAND
  -------         PROC          PRCSS_OPCODE_ATT_SIGNED_WRITE_COMMAND
  C:CBFEH         LINE#         2918
  C:CBFEH         LINE#         2919
  C:CBFEH         LINE#         2920
  -------         ENDPROC       PRCSS_OPCODE_ATT_SIGNED_WRITE_COMMAND
  -------         PROC          PRCSS_BLE_CODE_SMP_RESERVED
  C:CBFFH         LINE#         2925
  C:CBFFH         LINE#         2926
  C:CBFFH         LINE#         2927
  -------         ENDPROC       PRCSS_BLE_CODE_SMP_RESERVED
  -------         PROC          PRCSS_BLE_CODE_SMP_PAIRING_REQUEST
  C:7F00H         LINE#         2932
  C:7F00H         LINE#         2933
  C:7F00H         LINE#         2934
  C:7F09H         LINE#         2935
  C:7F09H         LINE#         2936
  C:7F09H         LINE#         2937
  C:7F09H         LINE#         2939
  C:7F09H         LINE#         2940
  C:7F11H         LINE#         2941
  C:7F19H         LINE#         2942
  C:7F21H         LINE#         2943
  C:7F29H         LINE#         2944
  C:7F31H         LINE#         2945
  C:7F39H         LINE#         2947
  C:7F46H         LINE#         2948
  C:7F46H         LINE#         2949
  C:7F47H         LINE#         2950
  C:7F49H         LINE#         2952
  C:7F49H         LINE#         2953
  C:7F6FH         LINE#         2954
BL51 BANKED LINKER/LOCATER V6.22                                                      05/30/2019  12:42:35  PAGE 79


  C:7F6FH         LINE#         2956
  C:7F7EH         LINE#         2957
  C:7F7EH         LINE#         2958
  C:7F81H         LINE#         2959
  C:7F88H         LINE#         2960
  C:7F88H         LINE#         2961
  C:7F8EH         LINE#         2962
  C:7F90H         LINE#         2963
  C:7F90H         LINE#         2965
  C:7F9FH         LINE#         2966
  C:7FA5H         LINE#         2967
  C:7FA8H         LINE#         2968
  C:7FAAH         LINE#         2974
  C:7FAAH         LINE#         2975
  C:7FB6H         LINE#         2976
  C:7FB6H         LINE#         2977
  C:7FB8H         LINE#         2979
  C:7FB8H         LINE#         2980
  C:7FB8H         LINE#         2981
  C:7FB8H         LINE#         2982
  C:7FBBH         LINE#         2983
  C:7FBBH         LINE#         2984
  C:7FBFH         LINE#         2985
  C:7FC1H         LINE#         2986
  C:7FC8H         LINE#         2987
  C:7FC8H         LINE#         2989
  C:7FCEH         LINE#         2990
  C:7FD3H         LINE#         2991
  C:7FD4H         LINE#         2993
  C:7FD4H         LINE#         2994
  C:7FD7H         LINE#         2995
  C:7FD7H         LINE#         2996
  C:7FDAH         LINE#         2997
  C:7FDAH         LINE#         2999
  C:7FDAH         LINE#         3000
  C:7FDAH         LINE#         3001
  C:7FDAH         LINE#         3002
  C:7FDDH         LINE#         3003
  C:7FDDH         LINE#         3004
  C:7FE1H         LINE#         3005
  C:7FE1H         LINE#         3006
  C:7FE9H         LINE#         3007
  C:7FE9H         LINE#         3008
  C:7FE9H         LINE#         3009
  -------         ENDPROC       PRCSS_BLE_CODE_SMP_PAIRING_REQUEST
  -------         PROC          PRCSS_BLE_CODE_SMP_PAIRING_RESPONSE
  C:CC00H         LINE#         3014
  C:CC00H         LINE#         3015
  C:CC00H         LINE#         3016
  -------         ENDPROC       PRCSS_BLE_CODE_SMP_PAIRING_RESPONSE
  -------         PROC          PRCSS_BLE_CODE_SMP_PAIRING_CONFIRM
  -------         DO            
  D:0007H         SYMBOL        i
  X:09D5H         SYMBOL        tempBufer
  -------         ENDDO         
  C:B570H         LINE#         3021
  C:B570H         LINE#         3022
BL51 BANKED LINKER/LOCATER V6.22                                                      05/30/2019  12:42:35  PAGE 80


  C:B570H         LINE#         3026
  C:B572H         LINE#         3027
  C:B578H         LINE#         3028
  C:B578H         LINE#         3029
  C:B578H         LINE#         3030
  C:B578H         LINE#         3031
  C:B57BH         LINE#         3032
  C:B581H         LINE#         3033
  C:B587H         LINE#         3035
  C:B58DH         LINE#         3036
  C:B58DH         LINE#         3037
  C:B58FH         LINE#         3038
  C:B58FH         LINE#         3039
  C:B591H         LINE#         3041
  C:B591H         LINE#         3042
  C:B592H         LINE#         3043
  C:B592H         LINE#         3045
  C:B595H         LINE#         3046
  C:B595H         LINE#         3047
  C:B5AAH         LINE#         3049
  C:B5ACH         LINE#         3050
  C:B5ACH         LINE#         3051
  C:B5C0H         LINE#         3052
  C:B5C6H         LINE#         3054
  C:B5C8H         LINE#         3055
  C:B5C8H         LINE#         3056
  C:B5CCH         LINE#         3057
  C:B5CFH         LINE#         3058
  C:B5D3H         LINE#         3059
  C:B5D5H         LINE#         3060
  C:B5D5H         LINE#         3061
  C:B5E3H         LINE#         3062
  C:B5E9H         LINE#         3063
  C:B5F1H         LINE#         3064
  C:B5F7H         LINE#         3065
  C:B5F7H         LINE#         3066
  -------         ENDPROC       PRCSS_BLE_CODE_SMP_PAIRING_CONFIRM
  -------         PROC          PRCSS_BLE_CODE_SMP_PAIRING_RANDOM
  -------         DO            
  X:09B3H         SYMBOL        i
  X:09B4H         SYMBOL        Mrand
  -------         ENDDO         
  C:A564H         LINE#         3071
  C:A564H         LINE#         3072
  C:A564H         LINE#         3076
  C:A569H         LINE#         3077
  C:A569H         LINE#         3078
  C:A57EH         LINE#         3079
  C:A586H         LINE#         3080
  C:A599H         LINE#         3082
  C:A5A4H         LINE#         3083
  C:A5A4H         LINE#         3084
  C:A5A8H         LINE#         3085
  C:A5B1H         LINE#         3086
  C:A5B1H         LINE#         3087
  C:A5C6H         LINE#         3088
  C:A5C6H         LINE#         3089
BL51 BANKED LINKER/LOCATER V6.22                                                      05/30/2019  12:42:35  PAGE 81


  C:A5C6H         LINE#         3090
  C:A5C6H         LINE#         3091
  C:A5CCH         LINE#         3092
  C:A5CEH         LINE#         3093
  C:A5D3H         LINE#         3094
  C:A5D3H         LINE#         3095
  C:A5D8H         LINE#         3096
  C:A5D8H         LINE#         3097
  C:A5DBH         LINE#         3098
  C:A5DBH         LINE#         3099
  C:A5DFH         LINE#         3100
  C:A5E4H         LINE#         3101
  C:A5E4H         LINE#         3102
  C:A602H         LINE#         3103
  C:A60AH         LINE#         3104
  C:A612H         LINE#         3106
  C:A617H         LINE#         3107
  C:A617H         LINE#         3108
  C:A62FH         LINE#         3109
  C:A637H         LINE#         3110
  C:A63DH         LINE#         3112
  C:A642H         LINE#         3113
  C:A643H         LINE#         3115
  C:A643H         LINE#         3116
  C:A645H         LINE#         3118
  C:A645H         LINE#         3119
  C:A645H         LINE#         3120
  C:A648H         LINE#         3121
  C:A648H         LINE#         3122
  C:A64CH         LINE#         3123
  C:A64EH         LINE#         3124
  C:A656H         LINE#         3125
  C:A65BH         LINE#         3126
  C:A65BH         LINE#         3127
  C:A65BH         LINE#         3128
  -------         ENDPROC       PRCSS_BLE_CODE_SMP_PAIRING_RANDOM
  -------         PROC          PRCSS_BLE_CODE_SMP_PAIRING_FAILED
  C:C9FEH         LINE#         3133
  C:C9FEH         LINE#         3134
  C:C9FEH         LINE#         3135
  C:CA00H         LINE#         3137
  C:CA07H         LINE#         3138
  C:CA07H         LINE#         3139
  C:CA0EH         LINE#         3140
  C:CA11H         LINE#         3142
  C:CA11H         LINE#         3143
  C:CA11H         LINE#         3144
  C:CA11H         LINE#         3145
  -------         ENDPROC       PRCSS_BLE_CODE_SMP_PAIRING_FAILED
  -------         PROC          PRCSS_BLE_CODE_SMP_ENCRYPTION_INFORMATION
  -------         DO            
  D:0007H         SYMBOL        i
  -------         ENDDO         
  C:CAD3H         LINE#         3150
  C:CAD3H         LINE#         3151
  C:CAD3H         LINE#         3154
  C:CAD5H         LINE#         3155
BL51 BANKED LINKER/LOCATER V6.22                                                      05/30/2019  12:42:35  PAGE 82


  C:CAD5H         LINE#         3156
  C:CAD8H         LINE#         3157
  C:CADEH         LINE#         3158
  -------         ENDPROC       PRCSS_BLE_CODE_SMP_ENCRYPTION_INFORMATION
  -------         PROC          PRCSS_BLE_CODE_SMP_MASTER_IDENTIFICATION
  -------         DO            
  D:0007H         SYMBOL        i
  -------         ENDDO         
  C:C267H         LINE#         3163
  C:C267H         LINE#         3164
  C:C267H         LINE#         3167
  C:C269H         LINE#         3168
  C:C269H         LINE#         3169
  C:C27EH         LINE#         3170
  C:C284H         LINE#         3171
  C:C286H         LINE#         3172
  C:C286H         LINE#         3173
  C:C29BH         LINE#         3174
  C:C2A1H         LINE#         3175
  -------         ENDPROC       PRCSS_BLE_CODE_SMP_MASTER_IDENTIFICATION
  -------         PROC          PRCSS_BLE_CODE_SMP_IDENTITY_INFORMATION
  -------         DO            
  D:0007H         SYMBOL        i
  -------         ENDDO         
  C:C8A9H         LINE#         3180
  C:C8A9H         LINE#         3181
  C:C8A9H         LINE#         3184
  C:C8ABH         LINE#         3185
  C:C8ABH         LINE#         3186
  C:C8BBH         LINE#         3187
  C:C8C1H         LINE#         3188
  -------         ENDPROC       PRCSS_BLE_CODE_SMP_IDENTITY_INFORMATION
  -------         PROC          PRCSS_BLE_CODE_SMP_IDENTITY_ADDRESS_INFORMATION
  -------         DO            
  X:098DH         SYMBOL        i
  X:098EH         SYMBOL        j
  X:098FH         SYMBOL        addr
  D:0001H         SYMBOL        tmp
  D:0010H         SYMBOL        BackupEA
  X:0990H         SYMBOL        iden_mac_addr
  X:0996H         SYMBOL        check_value
  X:099AH         SYMBOL        result
  X:099BH         SYMBOL        tmp_device_total_number
  X:099DH         SYMBOL        pre_tmp_device_total_number
  X:099FH         SYMBOL        next_tmp_device_total_number
  -------         ENDDO         
  C:8E4DH         LINE#         3193
  C:8E4DH         LINE#         3194
  C:8E4DH         LINE#         3203
  C:8E53H         LINE#         3204
  C:8E54H         LINE#         3206
  C:8E54H         LINE#         3208
  C:8E54H         LINE#         3209
  C:8E59H         LINE#         3210
  C:8E59H         LINE#         3211
  C:8E71H         LINE#         3212
  C:8E79H         LINE#         3215
BL51 BANKED LINKER/LOCATER V6.22                                                      05/30/2019  12:42:35  PAGE 83


  C:8E7BH         LINE#         3217
  C:8E88H         LINE#         3218
  C:8E91H         LINE#         3219
  C:8E9AH         LINE#         3221
  C:8EA4H         LINE#         3222
  C:8EAFH         LINE#         3223
  C:8EB4H         LINE#         3224
  C:8EBCH         LINE#         3225
  C:8EC1H         LINE#         3227
  C:8EC1H         LINE#         3228
  C:8ED4H         LINE#         3229
  C:8ED4H         LINE#         3230
  C:8EE5H         LINE#         3231
  C:8EE8H         LINE#         3232
  C:8EF1H         LINE#         3233
  C:8EF4H         LINE#         3235
  C:8F07H         LINE#         3236
  C:8F07H         LINE#         3237
  C:8F16H         LINE#         3238
  C:8F17H         LINE#         3239
  C:8F20H         LINE#         3240
  C:8F22H         LINE#         3243
  C:8F22H         LINE#         3244
  C:8F28H         LINE#         3245
  C:8F2AH         LINE#         3246
  C:8F2AH         LINE#         3247
  C:8F48H         LINE#         3249
  C:8F51H         LINE#         3250
  C:8F51H         LINE#         3252
  C:8F59H         LINE#         3253
  C:8F61H         LINE#         3254
  C:8F61H         LINE#         3255
  C:8F69H         LINE#         3256
  C:8F71H         LINE#         3257
  C:8F71H         LINE#         3258
  C:8F7CH         LINE#         3259
  C:8F7CH         LINE#         3260
  C:8F82H         LINE#         3261
  C:8F84H         LINE#         3262
  C:8F8FH         LINE#         3263
  C:8F8FH         LINE#         3264
  C:8F95H         LINE#         3265
  C:8F97H         LINE#         3266
  C:8FA8H         LINE#         3267
  C:8FA8H         LINE#         3268
  C:8FABH         LINE#         3269
  C:8FADH         LINE#         3271
  C:8FADH         LINE#         3272
  C:8FB0H         LINE#         3273
  C:8FB0H         LINE#         3275
  C:8FB5H         LINE#         3276
  C:8FB5H         LINE#         3277
  C:8FC4H         LINE#         3278
  C:8FCCH         LINE#         3279
  C:8FD7H         LINE#         3281
  C:8FDCH         LINE#         3282
  C:8FE2H         LINE#         3283
BL51 BANKED LINKER/LOCATER V6.22                                                      05/30/2019  12:42:35  PAGE 84


  C:8FE4H         LINE#         3284
  C:900BH         LINE#         3285
  C:9011H         LINE#         3286
  C:9016H         LINE#         3288
  C:9018H         LINE#         3289
  C:9018H         LINE#         3290
  C:9018H         LINE#         3291
  C:9018H         LINE#         3292
  C:9018H         LINE#         3293
  -------         ENDPROC       PRCSS_BLE_CODE_SMP_IDENTITY_ADDRESS_INFORMATION
  -------         PROC          PRCSS_BLE_CODE_SMP_SIGNING_INFORMATION
  -------         DO            
  D:0007H         SYMBOL        i
  -------         ENDDO         
  C:C8C2H         LINE#         3298
  C:C8C2H         LINE#         3299
  C:C8C2H         LINE#         3302
  C:C8C4H         LINE#         3303
  C:C8C4H         LINE#         3304
  C:C8D4H         LINE#         3305
  C:C8DAH         LINE#         3306
  -------         ENDPROC       PRCSS_BLE_CODE_SMP_SIGNING_INFORMATION
  -------         PROC          PRCSS_BLE_CODE_SMP_SECURITY_REQUEST
  C:C71FH         LINE#         3311
  C:C71FH         LINE#         3312
  C:C71FH         LINE#         3313
  C:C725H         LINE#         3314
  C:C725H         LINE#         3315
  C:C725H         LINE#         3316
  C:C725H         LINE#         3317
  C:C729H         LINE#         3318
  C:C72CH         LINE#         3319
  C:C730H         LINE#         3320
  C:C737H         LINE#         3321
  C:C73FH         LINE#         3322
  C:C73FH         LINE#         3323
  -------         ENDPROC       PRCSS_BLE_CODE_SMP_SECURITY_REQUEST
  -------         PROC          _GETBLE_ATTRIBUTE_TYPE_SIZE
  D:0007H         SYMBOL        ATT_Handle
  -------         DO            
  D:0007H         SYMBOL        i
  -------         ENDDO         
  C:C9AAH         LINE#         3328
  C:C9AAH         LINE#         3329
  C:C9AAH         LINE#         3332
  C:C9B5H         LINE#         3333
  C:C9B8H         LINE#         3334
  C:C9B8H         LINE#         3335
  C:C9BAH         LINE#         3336
  C:C9BCH         LINE#         3338
  C:C9BCH         LINE#         3339
  C:C9BEH         LINE#         3340
  C:C9BEH         LINE#         3341
  C:C9BEH         LINE#         3342
  -------         ENDPROC       _GETBLE_ATTRIBUTE_TYPE_SIZE
  -------         PROC          _CHKBLE_ATTRIBUTE_PERMISSION_READ
  D:0007H         SYMBOL        ATT_Handle
BL51 BANKED LINKER/LOCATER V6.22                                                      05/30/2019  12:42:35  PAGE 85


  -------         DO            
  D:0007H         SYMBOL        i
  D:0006H         SYMBOL        Rsp_Error
  -------         ENDDO         
  C:BF68H         LINE#         3347
  C:BF68H         LINE#         3348
  C:BF68H         LINE#         3351
  C:BF71H         LINE#         3352
  C:BF73H         LINE#         3353
  C:BF78H         LINE#         3354
  C:BF78H         LINE#         3355
  C:BF7AH         LINE#         3356
  C:BF7CH         LINE#         3358
  C:BF7CH         LINE#         3359
  C:BF80H         LINE#         3360
  C:BF80H         LINE#         3361
  C:BF86H         LINE#         3362
  C:BF86H         LINE#         3363
  C:BF88H         LINE#         3364
  C:BF88H         LINE#         3365
  C:BF88H         LINE#         3366
  C:BF8BH         LINE#         3367
  C:BF8BH         LINE#         3368
  C:BF8FH         LINE#         3369
  C:BF8FH         LINE#         3370
  C:BF94H         LINE#         3371
  C:BF94H         LINE#         3372
  C:BF96H         LINE#         3373
  C:BF96H         LINE#         3374
  C:BF96H         LINE#         3375
  C:BF96H         LINE#         3376
  C:BF99H         LINE#         3377
  C:BF99H         LINE#         3378
  C:BF9EH         LINE#         3379
  C:BF9EH         LINE#         3380
  C:BFA4H         LINE#         3381
  C:BFA4H         LINE#         3382
  C:BFA6H         LINE#         3383
  C:BFA8H         LINE#         3385
  C:BFA8H         LINE#         3386
  C:BFB1H         LINE#         3387
  C:BFB1H         LINE#         3388
  C:BFB3H         LINE#         3389
  C:BFB3H         LINE#         3390
  C:BFB3H         LINE#         3391
  C:BFB3H         LINE#         3392
  C:BFB3H         LINE#         3393
  C:BFB3H         LINE#         3395
  C:BFB6H         LINE#         3396
  -------         ENDPROC       _CHKBLE_ATTRIBUTE_PERMISSION_READ
  -------         PROC          _CHKBLE_ATTRIBUTE_PERMISSION_WRITE
  D:0007H         SYMBOL        ATT_Handle
  -------         DO            
  D:0007H         SYMBOL        i
  D:0006H         SYMBOL        Rsp_Error
  -------         ENDDO         
  C:BFB7H         LINE#         3401
BL51 BANKED LINKER/LOCATER V6.22                                                      05/30/2019  12:42:35  PAGE 86


  C:BFB7H         LINE#         3402
  C:BFB7H         LINE#         3405
  C:BFC0H         LINE#         3406
  C:BFC2H         LINE#         3407
  C:BFC7H         LINE#         3408
  C:BFC7H         LINE#         3409
  C:BFC9H         LINE#         3410
  C:BFCBH         LINE#         3412
  C:BFCBH         LINE#         3413
  C:BFCFH         LINE#         3414
  C:BFCFH         LINE#         3415
  C:BFD5H         LINE#         3416
  C:BFD5H         LINE#         3417
  C:BFD7H         LINE#         3418
  C:BFD7H         LINE#         3419
  C:BFD7H         LINE#         3420
  C:BFDAH         LINE#         3421
  C:BFDAH         LINE#         3422
  C:BFDEH         LINE#         3423
  C:BFDEH         LINE#         3424
  C:BFE3H         LINE#         3425
  C:BFE3H         LINE#         3426
  C:BFE5H         LINE#         3427
  C:BFE5H         LINE#         3428
  C:BFE5H         LINE#         3429
  C:BFE5H         LINE#         3430
  C:BFE8H         LINE#         3431
  C:BFE8H         LINE#         3432
  C:BFEDH         LINE#         3433
  C:BFEDH         LINE#         3434
  C:BFF3H         LINE#         3435
  C:BFF3H         LINE#         3436
  C:BFF5H         LINE#         3437
  C:BFF7H         LINE#         3439
  C:BFF7H         LINE#         3440
  C:C000H         LINE#         3441
  C:C000H         LINE#         3442
  C:C002H         LINE#         3443
  C:C002H         LINE#         3444
  C:C002H         LINE#         3445
  C:C002H         LINE#         3446
  C:C002H         LINE#         3447
  C:C002H         LINE#         3449
  C:C005H         LINE#         3450
  -------         ENDPROC       _CHKBLE_ATTRIBUTE_PERMISSION_WRITE
  C:4C65H         SYMBOL        L?1492
  -------         PROC          _CMD_FLASHBOND
  D:0007H         SYMBOL        opcode
  X:0A62H         SYMBOL        para_data
  -------         DO            
  X:0A65H         SYMBOL        j
  D:0007H         SYMBOL        addr
  D:0005H         SYMBOL        offsetaddr
  X:0A66H         SYMBOL        i
  X:0A68H         SYMBOL        k
  D:0011H         SYMBOL        BackupEA
  -------         ENDDO         
BL51 BANKED LINKER/LOCATER V6.22                                                      05/30/2019  12:42:35  PAGE 87


  C:451DH         LINE#         3455
  C:4523H         LINE#         3456
  C:4523H         LINE#         3459
  C:4529H         LINE#         3461
  C:454CH         LINE#         3462
  C:454CH         LINE#         3463
  C:454CH         LINE#         3464
  C:4558H         LINE#         3465
  C:4558H         LINE#         3466
  C:455BH         LINE#         3467
  C:4563H         LINE#         3468
  C:456BH         LINE#         3472
  C:456BH         LINE#         3473
  C:4577H         LINE#         3474
  C:4577H         LINE#         3475
  C:457AH         LINE#         3476
  C:4582H         LINE#         3477
  C:458AH         LINE#         3478
  C:458AH         LINE#         3479
  C:458DH         LINE#         3481
  C:458DH         LINE#         3482
  C:4595H         LINE#         3483
  C:45A6H         LINE#         3484
  C:45A6H         LINE#         3485
  C:45B9H         LINE#         3486
  C:45C0H         LINE#         3487
  C:45D3H         LINE#         3488
  C:45D3H         LINE#         3489
  C:45DAH         LINE#         3490
  C:45DAH         LINE#         3491
  C:45EFH         LINE#         3492
  C:45EFH         LINE#         3493
  C:45FAH         LINE#         3494
  C:45FAH         LINE#         3495
  C:45FAH         LINE#         3496
  C:45FAH         LINE#         3497
  C:45FFH         LINE#         3498
  C:460EH         LINE#         3499
  C:460EH         LINE#         3500
  C:460EH         LINE#         3501
  C:460EH         LINE#         3502
  C:460EH         LINE#         3504
  C:460EH         LINE#         3505
  C:460EH         LINE#         3506
  C:460EH         LINE#         3507
  C:460EH         LINE#         3508
  C:4626H         LINE#         3509
  C:4626H         LINE#         3510
  C:462DH         LINE#         3511
  C:462DH         LINE#         3512
  C:4643H         LINE#         3513
  C:4643H         LINE#         3514
  C:464EH         LINE#         3515
  C:464EH         LINE#         3516
  C:464EH         LINE#         3517
  C:464EH         LINE#         3518
  C:4653H         LINE#         3519
BL51 BANKED LINKER/LOCATER V6.22                                                      05/30/2019  12:42:35  PAGE 88


  C:4662H         LINE#         3520
  C:4662H         LINE#         3521
  C:4662H         LINE#         3522
  C:4662H         LINE#         3523
  C:4662H         LINE#         3525
  C:4662H         LINE#         3526
  C:4662H         LINE#         3527
  C:4662H         LINE#         3528
  C:4662H         LINE#         3529
  C:467AH         LINE#         3530
  C:467AH         LINE#         3531
  C:4681H         LINE#         3532
  C:4681H         LINE#         3533
  C:4697H         LINE#         3534
  C:4697H         LINE#         3535
  C:46A2H         LINE#         3536
  C:46A2H         LINE#         3537
  C:46A2H         LINE#         3538
  C:46A2H         LINE#         3539
  C:46A7H         LINE#         3540
  C:46B6H         LINE#         3541
  C:46B6H         LINE#         3542
  C:46B6H         LINE#         3543
  C:46B6H         LINE#         3544
  C:46B6H         LINE#         3546
  C:46B6H         LINE#         3547
  C:46B6H         LINE#         3548
  C:46B6H         LINE#         3549
  C:46B6H         LINE#         3550
  C:46CEH         LINE#         3551
  C:46CEH         LINE#         3552
  C:46D5H         LINE#         3553
  C:46D5H         LINE#         3554
  C:46E9H         LINE#         3555
  C:46E9H         LINE#         3556
  C:46F4H         LINE#         3557
  C:46F4H         LINE#         3558
  C:46F4H         LINE#         3559
  C:46F4H         LINE#         3560
  C:46F9H         LINE#         3561
  C:4705H         LINE#         3562
  C:4705H         LINE#         3563
  C:4705H         LINE#         3564
  C:4705H         LINE#         3565
  C:4705H         LINE#         3567
  C:4705H         LINE#         3568
  C:4705H         LINE#         3569
  C:4705H         LINE#         3570
  C:4705H         LINE#         3571
  C:4712H         LINE#         3572
  C:471DH         LINE#         3573
  C:471DH         LINE#         3574
  C:4738H         LINE#         3575
  C:4738H         LINE#         3576
  C:4743H         LINE#         3577
  C:4743H         LINE#         3578
  C:4748H         LINE#         3579
BL51 BANKED LINKER/LOCATER V6.22                                                      05/30/2019  12:42:35  PAGE 89


  C:4758H         LINE#         3580
  C:4758H         LINE#         3581
  C:4758H         LINE#         3582
  C:4758H         LINE#         3583
  C:475EH         LINE#         3584
  C:4761H         LINE#         3585
  C:476DH         LINE#         3586
  C:476DH         LINE#         3587
  C:476DH         LINE#         3588
  C:476DH         LINE#         3589
  C:4776H         LINE#         3590
  C:4781H         LINE#         3591
  C:4781H         LINE#         3592
  C:4785H         LINE#         3593
  C:4785H         LINE#         3594
  C:4788H         LINE#         3596
  C:4788H         LINE#         3597
  C:478BH         LINE#         3598
  C:478BH         LINE#         3599
  C:4796H         LINE#         3600
  C:4796H         LINE#         3601
  C:47A1H         LINE#         3602
  C:47A1H         LINE#         3603
  C:47A1H         LINE#         3604
  C:47A7H         LINE#         3605
  C:47AAH         LINE#         3606
  C:47AAH         LINE#         3607
  C:47B5H         LINE#         3608
  C:47B5H         LINE#         3609
  C:47B5H         LINE#         3610
  C:47BBH         LINE#         3611
  C:47BDH         LINE#         3612
  C:47BDH         LINE#         3613
  C:47C8H         LINE#         3614
  C:47C8H         LINE#         3615
  C:47C8H         LINE#         3616
  C:47CEH         LINE#         3617
  C:47D0H         LINE#         3618
  C:47D0H         LINE#         3619
  C:47DBH         LINE#         3620
  C:47DBH         LINE#         3621
  C:47DBH         LINE#         3622
  C:47EFH         LINE#         3623
  C:47F1H         LINE#         3624
  C:47F1H         LINE#         3625
  C:47FAH         LINE#         3626
  C:4805H         LINE#         3627
  C:4805H         LINE#         3628
  C:480AH         LINE#         3629
  C:480DH         LINE#         3631
  C:480DH         LINE#         3632
  C:4819H         LINE#         3633
  C:481CH         LINE#         3634
  C:481CH         LINE#         3635
  C:481FH         LINE#         3637
  C:481FH         LINE#         3638
  C:4822H         LINE#         3639
BL51 BANKED LINKER/LOCATER V6.22                                                      05/30/2019  12:42:35  PAGE 90


  C:4822H         LINE#         3640
  C:4830H         LINE#         3641
  C:4830H         LINE#         3642
  C:483BH         LINE#         3643
  C:483BH         LINE#         3644
  C:4845H         LINE#         3645
  C:484CH         LINE#         3646
  C:4856H         LINE#         3647
  C:4860H         LINE#         3648
  C:4869H         LINE#         3649
  C:4873H         LINE#         3650
  C:4873H         LINE#         3651
  C:4878H         LINE#         3652
  C:4878H         LINE#         3653
  C:487BH         LINE#         3654
  C:487BH         LINE#         3655
  C:4886H         LINE#         3656
  C:4886H         LINE#         3657
  C:488FH         LINE#         3658
  C:4896H         LINE#         3659
  C:489EH         LINE#         3660
  C:489EH         LINE#         3661
  C:48A1H         LINE#         3662
  C:48A1H         LINE#         3663
  C:48ACH         LINE#         3664
  C:48ACH         LINE#         3665
  C:48B5H         LINE#         3666
  C:48BCH         LINE#         3667
  C:48C4H         LINE#         3668
  C:48C4H         LINE#         3669
  C:48C6H         LINE#         3670
  C:48C6H         LINE#         3671
  C:48D1H         LINE#         3672
  C:48D1H         LINE#         3673
  C:48DAH         LINE#         3674
  C:48E0H         LINE#         3675
  C:48E9H         LINE#         3676
  C:48F0H         LINE#         3677
  C:48F2H         LINE#         3678
  C:48F2H         LINE#         3679
  C:48FBH         LINE#         3680
  C:4905H         LINE#         3681
  C:4905H         LINE#         3682
  C:490DH         LINE#         3683
  C:4916H         LINE#         3684
  C:491BH         LINE#         3685
  C:491BH         LINE#         3686
  C:4923H         LINE#         3687
  C:4923H         LINE#         3688
  C:492AH         LINE#         3689
  C:492AH         LINE#         3690
  C:4954H         LINE#         3691
  C:4954H         LINE#         3692
  C:4959H         LINE#         3693
  C:495CH         LINE#         3695
  C:495CH         LINE#         3696
  C:4962H         LINE#         3697
BL51 BANKED LINKER/LOCATER V6.22                                                      05/30/2019  12:42:35  PAGE 91


  C:4962H         LINE#         3698
  C:4962H         LINE#         3699
  C:4965H         LINE#         3700
  C:4973H         LINE#         3701
  C:4973H         LINE#         3702
  C:4973H         LINE#         3703
  C:4976H         LINE#         3705
  C:4976H         LINE#         3706
  C:497DH         LINE#         3707
  C:4991H         LINE#         3708
  C:4991H         LINE#         3709
  C:49B5H         LINE#         3710
  C:49B5H         LINE#         3711
  C:49C3H         LINE#         3712
  C:49C3H         LINE#         3713
  C:4A13H         LINE#         3714
  C:4A1BH         LINE#         3715
  C:4A1BH         LINE#         3716
  C:4A1BH         LINE#         3717
  C:4A24H         LINE#         3718
  C:4A33H         LINE#         3719
  C:4A33H         LINE#         3720
  C:4A38H         LINE#         3721
  C:4A38H         LINE#         3722
  C:4A3BH         LINE#         3724
  C:4A3BH         LINE#         3725
  C:4A42H         LINE#         3726
  C:4A46H         LINE#         3727
  C:4A57H         LINE#         3728
  C:4A57H         LINE#         3729
  C:4A7AH         LINE#         3730
  C:4A7AH         LINE#         3731
  C:4A84H         LINE#         3732
  C:4A84H         LINE#         3733
  C:4A89H         LINE#         3734
  C:4A89H         LINE#         3736
  C:4A89H         LINE#         3737
  C:4A89H         LINE#         3738
  C:4A89H         LINE#         3739
  C:4A89H         LINE#         3740
  C:4A8EH         LINE#         3741
  C:4A95H         LINE#         3742
  C:4A95H         LINE#         3743
  C:4A9FH         LINE#         3744
  C:4A9FH         LINE#         3745
  C:4AA6H         LINE#         3746
  C:4AA6H         LINE#         3747
  C:4AA6H         LINE#         3748
  C:4AABH         LINE#         3749
  C:4AABH         LINE#         3750
  C:4AB0H         LINE#         3751
  C:4AB3H         LINE#         3753
  C:4AB3H         LINE#         3754
  C:4ABDH         LINE#         3755
  C:4AC3H         LINE#         3756
  C:4AC9H         LINE#         3757
  C:4AD3H         LINE#         3758
BL51 BANKED LINKER/LOCATER V6.22                                                      05/30/2019  12:42:35  PAGE 92


  C:4AD3H         LINE#         3759
  C:4AFAH         LINE#         3760
  C:4AFAH         LINE#         3761
  C:4B02H         LINE#         3762
  C:4B04H         LINE#         3764
  C:4B04H         LINE#         3765
  C:4B0AH         LINE#         3766
  C:4B0AH         LINE#         3767
  C:4B0AH         LINE#         3768
  C:4B0AH         LINE#         3769
  C:4B13H         LINE#         3770
  C:4B13H         LINE#         3771
  C:4B1BH         LINE#         3772
  C:4B1BH         LINE#         3773
  C:4B27H         LINE#         3774
  C:4B27H         LINE#         3775
  C:4B2AH         LINE#         3777
  C:4B2AH         LINE#         3778
  C:4B31H         LINE#         3779
  C:4B44H         LINE#         3780
  C:4B44H         LINE#         3781
  C:4B60H         LINE#         3782
  C:4B60H         LINE#         3783
  C:4B60H         LINE#         3784
  C:4B60H         LINE#         3785
  C:4B65H         LINE#         3786
  C:4B6AH         LINE#         3787
  C:4B6AH         LINE#         3788
  C:4B70H         LINE#         3789
  C:4B72H         LINE#         3790
  C:4B76H         LINE#         3791
  C:4B76H         LINE#         3792
  C:4B76H         LINE#         3794
  C:4B76H         LINE#         3795
  C:4B84H         LINE#         3796
  C:4B84H         LINE#         3797
  C:4B96H         LINE#         3798
  C:4B99H         LINE#         3799
  C:4B99H         LINE#         3800
  C:4B99H         LINE#         3801
  C:4B9CH         LINE#         3802
  C:4BB0H         LINE#         3803
  C:4BB3H         LINE#         3804
  C:4BBEH         LINE#         3805
  C:4BC1H         LINE#         3807
  C:4BC1H         LINE#         3808
  C:4BC8H         LINE#         3809
  C:4BD3H         LINE#         3810
  C:4BD3H         LINE#         3811
  C:4BD8H         LINE#         3812
  C:4BDBH         LINE#         3814
  C:4BDBH         LINE#         3815
  C:4BFFH         LINE#         3816
  C:4BFFH         LINE#         3817
  C:4C18H         LINE#         3818
  C:4C1DH         LINE#         3819
  C:4C24H         LINE#         3820
BL51 BANKED LINKER/LOCATER V6.22                                                      05/30/2019  12:42:35  PAGE 93


  C:4C28H         LINE#         3821
  C:4C28H         LINE#         3822
  C:4C2BH         LINE#         3823
  C:4C5EH         LINE#         3824
  C:4C61H         LINE#         3825
  C:4C61H         LINE#         3826
  C:4C61H         LINE#         3828
  C:4C61H         LINE#         3829
  C:4C61H         LINE#         3830
  C:4C61H         LINE#         3831
  C:4C64H         LINE#         3832
  -------         ENDPROC       _CMD_FLASHBOND
  -------         PROC          _ERSDATA_FLASHBOND
  X:0B09H         SYMBOL        addr
  -------         DO            
  D:0012H         SYMBOL        BackupEA
  X:0B0AH         SYMBOL        tmpInterval
  D:0006H         SYMBOL        tmptmr
  X:0B0CH         SYMBOL        tmpflag
  -------         ENDDO         
  C:A9B8H         LINE#         3837
  C:A9BBH         LINE#         3838
  C:A9BBH         LINE#         3839
  C:A9C0H         LINE#         3843
  C:A9C5H         LINE#         3845
  C:A9C8H         LINE#         3846
  C:A9C8H         LINE#         3847
  C:A9CBH         LINE#         3848
  C:A9CBH         LINE#         3849
  C:A9D5H         LINE#         3850
  C:A9D5H         LINE#         3851
  C:A9D5H         LINE#         3852
  C:A9D7H         LINE#         3854
  C:A9D7H         LINE#         3855
  C:A9DDH         LINE#         3856
  C:A9DDH         LINE#         3857
  C:A9DFH         LINE#         3859
  C:A9DFH         LINE#         3860
  C:A9E9H         LINE#         3861
  C:A9E9H         LINE#         3862
  C:A9F3H         LINE#         3863
  C:A9F5H         LINE#         3865
  C:A9F5H         LINE#         3866
  C:A9FBH         LINE#         3867
  C:A9FBH         LINE#         3868
  C:A9FBH         LINE#         3869
  C:A9FDH         LINE#         3871
  C:A9FDH         LINE#         3872
  C:AA11H         LINE#         3873
  C:AA11H         LINE#         3875
  C:AA11H         LINE#         3878
  C:AA20H         LINE#         3879
  C:AA20H         LINE#         3881
  C:AA20H         LINE#         3883
  C:AA20H         LINE#         3884
  C:AA23H         LINE#         3885
  C:AA26H         LINE#         3886
BL51 BANKED LINKER/LOCATER V6.22                                                      05/30/2019  12:42:35  PAGE 94


  C:AA29H         LINE#         3887
  C:AA2FH         LINE#         3889
  C:AA32H         LINE#         3891
  C:AA32H         LINE#         3893
  C:AA42H         LINE#         3894
  C:AA42H         LINE#         3895
  C:AA47H         LINE#         3896
  C:AA47H         LINE#         3897
  C:AA47H         LINE#         3899
  C:AA4DH         LINE#         3900
  C:AA4FH         LINE#         3901
  C:AA54H         LINE#         3902
  C:AA5EH         LINE#         3903
  C:AA63H         LINE#         3904
  C:AA69H         LINE#         3906
  C:AA70H         LINE#         3907
  C:AA70H         LINE#         3908
  C:AA77H         LINE#         3909
  C:AA77H         LINE#         3910
  C:AA77H         LINE#         3911
  C:AA77H         LINE#         3913
  C:AA7AH         LINE#         3914
  C:AA7AH         LINE#         3915
  C:AA7AH         LINE#         3916
  -------         ENDPROC       _ERSDATA_FLASHBOND
  -------         PROC          _ERSINFO_FLASHBOND
  X:0B0DH         SYMBOL        addr
  -------         DO            
  D:0013H         SYMBOL        BackupEA
  X:0B0EH         SYMBOL        tmpInterval
  D:0006H         SYMBOL        tmptmr
  X:0B10H         SYMBOL        tmpflag
  -------         ENDDO         
  C:AA7BH         LINE#         3921
  C:AA7EH         LINE#         3922
  C:AA7EH         LINE#         3923
  C:AA83H         LINE#         3927
  C:AA88H         LINE#         3929
  C:AA8BH         LINE#         3930
  C:AA8BH         LINE#         3931
  C:AA8EH         LINE#         3932
  C:AA8EH         LINE#         3933
  C:AA98H         LINE#         3934
  C:AA98H         LINE#         3935
  C:AA98H         LINE#         3936
  C:AA9AH         LINE#         3938
  C:AA9AH         LINE#         3939
  C:AAA0H         LINE#         3940
  C:AAA0H         LINE#         3941
  C:AAA2H         LINE#         3943
  C:AAA2H         LINE#         3944
  C:AAACH         LINE#         3945
  C:AAACH         LINE#         3946
  C:AAB6H         LINE#         3947
  C:AAB8H         LINE#         3949
  C:AAB8H         LINE#         3950
  C:AABEH         LINE#         3951
BL51 BANKED LINKER/LOCATER V6.22                                                      05/30/2019  12:42:35  PAGE 95


  C:AABEH         LINE#         3952
  C:AABEH         LINE#         3953
  C:AAC0H         LINE#         3955
  C:AAC0H         LINE#         3956
  C:AAD4H         LINE#         3957
  C:AAD4H         LINE#         3959
  C:AAD4H         LINE#         3961
  C:AAE3H         LINE#         3962
  C:AAE3H         LINE#         3964
  C:AAE3H         LINE#         3966
  C:AAE3H         LINE#         3967
  C:AAE6H         LINE#         3968
  C:AAE9H         LINE#         3969
  C:AAECH         LINE#         3970
  C:AAF2H         LINE#         3972
  C:AAF5H         LINE#         3974
  C:AAF5H         LINE#         3976
  C:AB05H         LINE#         3977
  C:AB05H         LINE#         3978
  C:AB0AH         LINE#         3979
  C:AB0AH         LINE#         3980
  C:AB0AH         LINE#         3982
  C:AB10H         LINE#         3983
  C:AB12H         LINE#         3984
  C:AB17H         LINE#         3985
  C:AB21H         LINE#         3986
  C:AB26H         LINE#         3987
  C:AB2CH         LINE#         3989
  C:AB33H         LINE#         3990
  C:AB33H         LINE#         3991
  C:AB3AH         LINE#         3992
  C:AB3AH         LINE#         3993
  C:AB3AH         LINE#         3994
  C:AB3AH         LINE#         3996
  C:AB3DH         LINE#         3997
  C:AB3DH         LINE#         3998
  C:AB3DH         LINE#         3999
  -------         ENDPROC       _ERSINFO_FLASHBOND
  -------         PROC          _MARK_PID_INFO_FLASHBOND
  X:0AD4H         SYMBOL        addr
  -------         DO            
  X:0AD5H         SYMBOL        i
  X:0AD7H         SYMBOL        j
  D:0014H         SYMBOL        BackupEA
  -------         ENDDO         
  C:BB82H         LINE#         4004
  C:BB85H         LINE#         4005
  C:BB85H         LINE#         4007
  C:BB8AH         LINE#         4009
  C:BB91H         LINE#         4010
  C:BB96H         LINE#         4011
  C:BB98H         LINE#         4012
  C:BBAAH         LINE#         4013
  C:BBAAH         LINE#         4014
  C:BBB1H         LINE#         4015
  C:BBB3H         LINE#         4016
  C:BBC4H         LINE#         4017
BL51 BANKED LINKER/LOCATER V6.22                                                      05/30/2019  12:42:35  PAGE 96


  C:BBCAH         LINE#         4018
  C:BBD2H         LINE#         4019
  C:BBD8H         LINE#         4020
  -------         ENDPROC       _MARK_PID_INFO_FLASHBOND
  -------         PROC          _MARK_PID_DATA_FLASHBOND
  X:0AD9H         SYMBOL        addr
  -------         DO            
  X:0ADAH         SYMBOL        i
  X:0ADCH         SYMBOL        j
  D:0015H         SYMBOL        BackupEA
  -------         ENDDO         
  C:BB27H         LINE#         4025
  C:BB2AH         LINE#         4026
  C:BB2AH         LINE#         4028
  C:BB2FH         LINE#         4030
  C:BB36H         LINE#         4031
  C:BB3BH         LINE#         4032
  C:BB3DH         LINE#         4033
  C:BB4FH         LINE#         4034
  C:BB4FH         LINE#         4035
  C:BB56H         LINE#         4036
  C:BB58H         LINE#         4037
  C:BB69H         LINE#         4038
  C:BB6FH         LINE#         4039
  C:BB7BH         LINE#         4040
  C:BB81H         LINE#         4041
  -------         ENDPROC       _MARK_PID_DATA_FLASHBOND
  -------         PROC          FIL_INFO_FLASHBONDWEXST_PBID
  -------         DO            
  D:0007H         SYMBOL        i
  X:0B54H         SYMBOL        j
  D:0007H         SYMBOL        addr
  D:0001H         SYMBOL        tmp
  D:0016H         SYMBOL        BackupEA
  -------         ENDDO         
  C:A746H         LINE#         4046
  C:A746H         LINE#         4047
  C:A746H         LINE#         4050
  C:A74CH         LINE#         4052
  C:A754H         LINE#         4053
  C:A75CH         LINE#         4054
  C:A75CH         LINE#         4055
  C:A764H         LINE#         4056
  C:A76CH         LINE#         4057
  C:A76CH         LINE#         4058
  C:A777H         LINE#         4059
  C:A777H         LINE#         4060
  C:A77DH         LINE#         4061
  C:A77FH         LINE#         4062
  C:A78AH         LINE#         4063
  C:A78AH         LINE#         4064
  C:A790H         LINE#         4065
  C:A792H         LINE#         4066
  C:A7A3H         LINE#         4067
  C:A7A3H         LINE#         4068
  C:A7A6H         LINE#         4069
  C:A7A8H         LINE#         4071
BL51 BANKED LINKER/LOCATER V6.22                                                      05/30/2019  12:42:35  PAGE 97


  C:A7A8H         LINE#         4072
  C:A7ABH         LINE#         4073
  C:A7ABH         LINE#         4075
  C:A7ADH         LINE#         4076
  C:A7ADH         LINE#         4077
  C:A7B8H         LINE#         4078
  C:A7BEH         LINE#         4079
  C:A7C0H         LINE#         4080
  C:A7C0H         LINE#         4081
  C:A7CBH         LINE#         4082
  C:A7D1H         LINE#         4083
  C:A7D3H         LINE#         4084
  C:A7D3H         LINE#         4085
  C:A7DEH         LINE#         4086
  C:A7E4H         LINE#         4087
  C:A7ECH         LINE#         4089
  C:A7F2H         LINE#         4090
  C:A7F4H         LINE#         4091
  C:A812H         LINE#         4092
  C:A818H         LINE#         4094
  C:A81AH         LINE#         4095
  C:A81AH         LINE#         4096
  C:A81AH         LINE#         4097
  -------         ENDPROC       FIL_INFO_FLASHBONDWEXST_PBID
  C:A357H         SYMBOL        L?1439
  -------         PROC          FIL_DATA_FLASHBONDWEXST_PBID
  -------         DO            
  X:0ADEH         SYMBOL        i
  X:0ADFH         SYMBOL        j
  X:0AE0H         SYMBOL        tmp
  -------         ENDDO         
  C:A251H         LINE#         4102
  C:A251H         LINE#         4103
  C:A251H         LINE#         4106
  C:A259H         LINE#         4107
  C:A259H         LINE#         4108
  C:A25EH         LINE#         4109
  C:A266H         LINE#         4110
  C:A266H         LINE#         4111
  C:A26BH         LINE#         4112
  C:A275H         LINE#         4113
  C:A275H         LINE#         4114
  C:A27BH         LINE#         4115
  C:A291H         LINE#         4116
  C:A291H         LINE#         4117
  C:A2A6H         LINE#         4118
  C:A2A6H         LINE#         4119
  C:A2D5H         LINE#         4120
  C:A2D5H         LINE#         4121
  C:A324H         LINE#         4122
  C:A32DH         LINE#         4123
  C:A353H         LINE#         4124
  C:A353H         LINE#         4125
  C:A356H         LINE#         4126
  C:A356H         LINE#         4127
  C:A356H         LINE#         4128
  C:A356H         LINE#         4129
BL51 BANKED LINKER/LOCATER V6.22                                                      05/30/2019  12:42:35  PAGE 98


  -------         ENDPROC       FIL_DATA_FLASHBONDWEXST_PBID
  -------         PROC          _BLE_SENDDATA
  X:0A45H         SYMBOL        ServiceBuffer
  X:0A48H         SYMBOL        SERVICEBUFFER_INITIAL
  X:0A4BH         SYMBOL        tmplength
  -------         DO            
  X:0A4CH         SYMBOL        errorcode
  X:0A4DH         SYMBOL        i
  X:0A4EH         SYMBOL        handle_H
  D:0007H         SYMBOL        handle_L
  B:0029H.0       SYMBOL        Rsp_Error
  X:0A4FH         SYMBOL        dylength
  -------         ENDDO         
  C:847DH         LINE#         4134
  C:8483H         LINE#         4135
  C:8483H         LINE#         4140
  C:8488H         LINE#         4142
  C:8493H         LINE#         4143
  C:8493H         LINE#         4144
  C:849FH         LINE#         4145
  C:849FH         LINE#         4146
  C:84A9H         LINE#         4147
  C:84AEH         LINE#         4149
  C:84B1H         LINE#         4150
  C:84B1H         LINE#         4151
  C:84B7H         LINE#         4152
  C:84B7H         LINE#         4154
  C:84B9H         LINE#         4155
  C:84BEH         LINE#         4157
  C:84BEH         LINE#         4158
  C:84D2H         LINE#         4159
  C:84D2H         LINE#         4160
  C:84DEH         LINE#         4161
  C:84DEH         LINE#         4162
  C:84E0H         LINE#         4163
  C:84E2H         LINE#         4164
  C:84E2H         LINE#         4165
  C:84E2H         LINE#         4166
  C:84E8H         LINE#         4167
  C:84F5H         LINE#         4169
  C:84FBH         LINE#         4170
  C:84FBH         LINE#         4171
  C:850BH         LINE#         4172
  C:850BH         LINE#         4173
  C:851EH         LINE#         4174
  C:851EH         LINE#         4175
  C:852FH         LINE#         4176
  C:8532H         LINE#         4177
  C:8532H         LINE#         4178
  C:8535H         LINE#         4179
  C:8537H         LINE#         4181
  C:8537H         LINE#         4182
  C:853DH         LINE#         4183
  C:853DH         LINE#         4184
  C:8556H         LINE#         4185
  C:8556H         LINE#         4186
  C:8558H         LINE#         4187
BL51 BANKED LINKER/LOCATER V6.22                                                      05/30/2019  12:42:35  PAGE 99


  C:855BH         LINE#         4188
  C:855BH         LINE#         4189
  C:855FH         LINE#         4190
  C:8562H         LINE#         4191
  C:8565H         LINE#         4192
  C:8565H         LINE#         4193
  C:8577H         LINE#         4194
  C:8577H         LINE#         4195
  C:858DH         LINE#         4196
  C:8595H         LINE#         4197
  C:859CH         LINE#         4199
  C:859EH         LINE#         4200
  C:85A1H         LINE#         4207
  C:85A1H         LINE#         4208
  C:85A7H         LINE#         4209
  C:85A7H         LINE#         4210
  C:85AAH         LINE#         4211
  C:85B1H         LINE#         4212
  C:85B1H         LINE#         4213
  C:85C8H         LINE#         4214
  C:85C8H         LINE#         4215
  C:85CEH         LINE#         4216
  C:85CEH         LINE#         4217
  C:85DCH         LINE#         4218
  C:85DFH         LINE#         4219
  C:85DFH         LINE#         4220
  C:85E2H         LINE#         4221
  C:85E4H         LINE#         4223
  C:85E4H         LINE#         4224
  C:85EAH         LINE#         4225
  C:85EAH         LINE#         4226
  C:85FDH         LINE#         4227
  C:85FDH         LINE#         4228
  C:85FFH         LINE#         4229
  C:8602H         LINE#         4230
  C:8602H         LINE#         4231
  C:8606H         LINE#         4232
  C:8609H         LINE#         4233
  C:860CH         LINE#         4234
  C:860CH         LINE#         4235
  C:861EH         LINE#         4236
  C:861EH         LINE#         4237
  C:8636H         LINE#         4238
  C:863EH         LINE#         4239
  C:8645H         LINE#         4241
  C:8647H         LINE#         4242
  C:8649H         LINE#         4243
  C:864BH         LINE#         4245
  C:864BH         LINE#         4246
  C:8651H         LINE#         4247
  C:8651H         LINE#         4248
  C:8653H         LINE#         4250
  C:8653H         LINE#         4251
  C:8659H         LINE#         4252
  C:8659H         LINE#         4253
  C:865BH         LINE#         4255
  C:865BH         LINE#         4256
BL51 BANKED LINKER/LOCATER V6.22                                                      05/30/2019  12:42:35  PAGE 100


  C:8661H         LINE#         4257
  C:8661H         LINE#         4258
  C:8663H         LINE#         4260
  C:8663H         LINE#         4261
  C:8669H         LINE#         4262
  C:8669H         LINE#         4263
  C:866BH         LINE#         4265
  C:866BH         LINE#         4266
  C:8671H         LINE#         4267
  C:8671H         LINE#         4268
  C:8673H         LINE#         4270
  C:8673H         LINE#         4271
  C:8679H         LINE#         4272
  C:8679H         LINE#         4273
  C:867BH         LINE#         4275
  C:867BH         LINE#         4276
  C:8681H         LINE#         4277
  C:8681H         LINE#         4279
  C:8686H         LINE#         4280
  -------         ENDPROC       _BLE_SENDDATA
  -------         PROC          BLE_GETWRITEEVENT
  C:CB61H         LINE#         4285
  C:CB61H         LINE#         4286
  C:CB61H         LINE#         4287
  C:CB63H         LINE#         4289
  C:CB69H         LINE#         4290
  -------         ENDPROC       BLE_GETWRITEEVENT
  -------         PROC          BLE_GETWRITEEVENT_LENGTH
  C:CBB3H         LINE#         4295
  C:CBB3H         LINE#         4296
  C:CBB3H         LINE#         4297
  C:CBB8H         LINE#         4298
  -------         ENDPROC       BLE_GETWRITEEVENT_LENGTH
  -------         PROC          BLE_ANCS_DISCOVER
  -------         DO            
  D:0007H         SYMBOL        errorcode
  -------         ENDDO         
  C:C565H         LINE#         4303
  C:C565H         LINE#         4304
  C:C565H         LINE#         4307
  C:C567H         LINE#         4309
  C:C56EH         LINE#         4310
  C:C56EH         LINE#         4311
  C:C578H         LINE#         4312
  C:C578H         LINE#         4313
  C:C57AH         LINE#         4314
  C:C57FH         LINE#         4315
  C:C585H         LINE#         4316
  C:C587H         LINE#         4318
  C:C587H         LINE#         4319
  C:C58CH         LINE#         4320
  C:C58CH         LINE#         4321
  C:C58EH         LINE#         4323
  C:C58EH         LINE#         4324
  C:C590H         LINE#         4325
  C:C590H         LINE#         4327
  C:C590H         LINE#         4328
BL51 BANKED LINKER/LOCATER V6.22                                                      05/30/2019  12:42:35  PAGE 101


  -------         ENDPROC       BLE_ANCS_DISCOVER
  -------         PROC          BLE_GETANCS_RESULT
  -------         DO            
  D:0006H         SYMBOL        errorcode
  -------         ENDDO         
  C:C740H         LINE#         4333
  C:C740H         LINE#         4334
  C:C740H         LINE#         4337
  C:C745H         LINE#         4339
  C:C751H         LINE#         4340
  C:C751H         LINE#         4341
  C:C754H         LINE#         4342
  C:C756H         LINE#         4343
  C:C75CH         LINE#         4344
  C:C75CH         LINE#         4346
  C:C75FH         LINE#         4347
  -------         ENDPROC       BLE_GETANCS_RESULT
  -------         PROC          SETBLE_ANCS_DISCOVER
  -------         DO            
  D:0007H         SYMBOL        i
  -------         ENDDO         
  C:BE26H         LINE#         4352
  C:BE26H         LINE#         4353
  C:BE26H         LINE#         4356
  C:BE2CH         LINE#         4357
  C:BE30H         LINE#         4358
  C:BE33H         LINE#         4359
  C:BE37H         LINE#         4360
  C:BE39H         LINE#         4361
  C:BE3CH         LINE#         4362
  C:BE40H         LINE#         4363
  C:BE42H         LINE#         4364
  C:BE42H         LINE#         4365
  C:BE46H         LINE#         4366
  C:BE49H         LINE#         4367
  C:BE55H         LINE#         4368
  C:BE55H         LINE#         4369
  C:BE65H         LINE#         4370
  C:BE68H         LINE#         4372
  C:BE70H         LINE#         4373
  C:BE76H         LINE#         4374
  -------         ENDPROC       SETBLE_ANCS_DISCOVER
  -------         PROC          BLE_ANCS_NOTIFICATIONSOURCE_ENABLE
  -------         DO            
  D:0007H         SYMBOL        errorcode
  -------         ENDDO         
  C:C7A0H         LINE#         4379
  C:C7A0H         LINE#         4380
  C:C7A0H         LINE#         4383
  C:C7A2H         LINE#         4385
  C:C7AAH         LINE#         4386
  C:C7AAH         LINE#         4387
  C:C7ADH         LINE#         4388
  C:C7ADH         LINE#         4389
  C:C7AFH         LINE#         4390
  C:C7B1H         LINE#         4392
  C:C7B1H         LINE#         4393
BL51 BANKED LINKER/LOCATER V6.22                                                      05/30/2019  12:42:35  PAGE 102


  C:C7B3H         LINE#         4394
  C:C7B9H         LINE#         4395
  C:C7B9H         LINE#         4396
  C:C7BBH         LINE#         4398
  C:C7BBH         LINE#         4399
  C:C7BEH         LINE#         4400
  C:C7BEH         LINE#         4402
  C:C7BEH         LINE#         4403
  -------         ENDPROC       BLE_ANCS_NOTIFICATIONSOURCE_ENABLE
  -------         PROC          BLE_ANCS_NOTIFICATIONSOURCE_DISABLE
  -------         DO            
  D:0007H         SYMBOL        errorcode
  -------         ENDDO         
  C:C7BFH         LINE#         4408
  C:C7BFH         LINE#         4409
  C:C7BFH         LINE#         4412
  C:C7C1H         LINE#         4414
  C:C7C9H         LINE#         4415
  C:C7C9H         LINE#         4416
  C:C7CCH         LINE#         4417
  C:C7CCH         LINE#         4418
  C:C7CEH         LINE#         4419
  C:C7D0H         LINE#         4421
  C:C7D0H         LINE#         4422
  C:C7D2H         LINE#         4423
  C:C7D8H         LINE#         4424
  C:C7D8H         LINE#         4425
  C:C7DAH         LINE#         4427
  C:C7DAH         LINE#         4428
  C:C7DDH         LINE#         4429
  C:C7DDH         LINE#         4431
  C:C7DDH         LINE#         4432
  -------         ENDPROC       BLE_ANCS_NOTIFICATIONSOURCE_DISABLE
  -------         PROC          SETBLE_ANCS_NOTIFICATINOSOURCE
  C:BC87H         LINE#         4437
  C:BC87H         LINE#         4438
  C:BC87H         LINE#         4439
  C:BC9CH         LINE#         4440
  C:BC9CH         LINE#         4441
  C:BCA4H         LINE#         4442
  C:BCA4H         LINE#         4443
  C:BCA4H         LINE#         4444
  C:BCA4H         LINE#         4445
  C:BCA4H         LINE#         4446
  C:BCA7H         LINE#         4447
  C:BCA7H         LINE#         4448
  C:BCA7H         LINE#         4449
  C:BCABH         LINE#         4450
  C:BCB1H         LINE#         4451
  C:BCB5H         LINE#         4452
  C:BCB6H         LINE#         4454
  C:BCB6H         LINE#         4456
  C:BCB6H         LINE#         4457
  C:BCB8H         LINE#         4458
  C:BCC0H         LINE#         4459
  C:BCC0H         LINE#         4460
  C:BCC0H         LINE#         4461
BL51 BANKED LINKER/LOCATER V6.22                                                      05/30/2019  12:42:35  PAGE 103


  C:BCC0H         LINE#         4462
  C:BCC0H         LINE#         4463
  C:BCC3H         LINE#         4464
  C:BCC3H         LINE#         4465
  C:BCC3H         LINE#         4466
  C:BCC7H         LINE#         4467
  C:BCCCH         LINE#         4468
  C:BCD0H         LINE#         4469
  C:BCD0H         LINE#         4471
  C:BCD8H         LINE#         4473
  C:BCDAH         LINE#         4474
  C:BCDAH         LINE#         4475
  C:BCDAH         LINE#         4476
  -------         ENDPROC       SETBLE_ANCS_NOTIFICATINOSOURCE
  -------         PROC          BLE_ANCS_DATASOURCE_ENABLE
  -------         DO            
  D:0007H         SYMBOL        errorcode
  -------         ENDDO         
  C:C665H         LINE#         4481
  C:C665H         LINE#         4482
  C:C665H         LINE#         4485
  C:C665H         LINE#         4487
  C:C66AH         LINE#         4488
  C:C66AH         LINE#         4489
  C:C674H         LINE#         4490
  C:C674H         LINE#         4491
  C:C676H         LINE#         4492
  C:C678H         LINE#         4494
  C:C678H         LINE#         4495
  C:C67BH         LINE#         4496
  C:C67BH         LINE#         4497
  C:C67DH         LINE#         4498
  C:C67FH         LINE#         4500
  C:C67FH         LINE#         4501
  C:C681H         LINE#         4502
  C:C687H         LINE#         4503
  C:C687H         LINE#         4504
  C:C687H         LINE#         4505
  C:C689H         LINE#         4507
  C:C689H         LINE#         4508
  C:C68CH         LINE#         4509
  C:C68CH         LINE#         4511
  C:C68CH         LINE#         4512
  -------         ENDPROC       BLE_ANCS_DATASOURCE_ENABLE
  -------         PROC          BLE_ANCS_DATASOURCE_DISABLE
  -------         DO            
  D:0007H         SYMBOL        errorcode
  -------         ENDDO         
  C:C68DH         LINE#         4517
  C:C68DH         LINE#         4518
  C:C68DH         LINE#         4521
  C:C68DH         LINE#         4523
  C:C692H         LINE#         4524
  C:C692H         LINE#         4525
  C:C69CH         LINE#         4526
  C:C69CH         LINE#         4527
  C:C69EH         LINE#         4528
BL51 BANKED LINKER/LOCATER V6.22                                                      05/30/2019  12:42:35  PAGE 104


  C:C6A0H         LINE#         4530
  C:C6A0H         LINE#         4531
  C:C6A3H         LINE#         4532
  C:C6A3H         LINE#         4533
  C:C6A5H         LINE#         4534
  C:C6A7H         LINE#         4536
  C:C6A7H         LINE#         4537
  C:C6A9H         LINE#         4538
  C:C6AFH         LINE#         4539
  C:C6AFH         LINE#         4540
  C:C6AFH         LINE#         4541
  C:C6B1H         LINE#         4543
  C:C6B1H         LINE#         4544
  C:C6B4H         LINE#         4545
  C:C6B4H         LINE#         4547
  C:C6B4H         LINE#         4548
  -------         ENDPROC       BLE_ANCS_DATASOURCE_DISABLE
  -------         PROC          SETBLE_ANCS_DATASOURCE
  C:BCDBH         LINE#         4553
  C:BCDBH         LINE#         4554
  C:BCDBH         LINE#         4555
  C:BCF0H         LINE#         4556
  C:BCF0H         LINE#         4557
  C:BCF8H         LINE#         4558
  C:BCF8H         LINE#         4559
  C:BCF8H         LINE#         4560
  C:BCF8H         LINE#         4561
  C:BCF8H         LINE#         4562
  C:BCFBH         LINE#         4563
  C:BCFBH         LINE#         4564
  C:BCFBH         LINE#         4565
  C:BCFFH         LINE#         4566
  C:BD05H         LINE#         4567
  C:BD09H         LINE#         4568
  C:BD0AH         LINE#         4570
  C:BD0AH         LINE#         4572
  C:BD0AH         LINE#         4573
  C:BD0CH         LINE#         4574
  C:BD14H         LINE#         4575
  C:BD14H         LINE#         4576
  C:BD14H         LINE#         4577
  C:BD14H         LINE#         4578
  C:BD14H         LINE#         4579
  C:BD17H         LINE#         4580
  C:BD17H         LINE#         4581
  C:BD17H         LINE#         4582
  C:BD1BH         LINE#         4583
  C:BD20H         LINE#         4584
  C:BD24H         LINE#         4585
  C:BD24H         LINE#         4587
  C:BD2CH         LINE#         4589
  C:BD2EH         LINE#         4590
  C:BD2EH         LINE#         4591
  C:BD2EH         LINE#         4592
  -------         ENDPROC       SETBLE_ANCS_DATASOURCE
  -------         PROC          BLE_GET_ANCS_NOFITICATION_ENVET
  C:CB6AH         LINE#         4597
BL51 BANKED LINKER/LOCATER V6.22                                                      05/30/2019  12:42:35  PAGE 105


  C:CB6AH         LINE#         4598
  C:CB6AH         LINE#         4599
  C:CB6CH         LINE#         4601
  C:CB72H         LINE#         4602
  -------         ENDPROC       BLE_GET_ANCS_NOFITICATION_ENVET
  -------         PROC          BLE_GET_ANCS_NOTIFICATION_LENGTH
  C:CBB9H         LINE#         4607
  C:CBB9H         LINE#         4608
  C:CBB9H         LINE#         4609
  C:CBBEH         LINE#         4610
  -------         ENDPROC       BLE_GET_ANCS_NOTIFICATION_LENGTH
  -------         PROC          _BLE_ANCS_SEND_CONTROL_POINT
  D:0002H         SYMBOL        tmplength
  -------         DO            
  D:0006H         SYMBOL        errorcode
  D:0007H         SYMBOL        i
  -------         ENDDO         
  C:B2ACH         LINE#         4615
  C:B2AFH         LINE#         4616
  C:B2AFH         LINE#         4620
  C:B2B1H         LINE#         4622
  C:B2BCH         LINE#         4623
  C:B2BCH         LINE#         4624
  C:B2C5H         LINE#         4625
  C:B2C5H         LINE#         4626
  C:B2D0H         LINE#         4627
  C:B2D0H         LINE#         4628
  C:B2D2H         LINE#         4629
  C:B2D4H         LINE#         4631
  C:B2D4H         LINE#         4632
  C:B2D7H         LINE#         4633
  C:B2D7H         LINE#         4634
  C:B2E2H         LINE#         4635
  C:B2E2H         LINE#         4636
  C:B2E8H         LINE#         4637
  C:B2EEH         LINE#         4638
  C:B2EEH         LINE#         4639
  C:B2F2H         LINE#         4640
  C:B2F5H         LINE#         4641
  C:B2FDH         LINE#         4642
  C:B300H         LINE#         4643
  C:B307H         LINE#         4644
  C:B307H         LINE#         4645
  C:B31FH         LINE#         4646
  C:B322H         LINE#         4647
  C:B329H         LINE#         4648
  C:B32BH         LINE#         4649
  C:B32DH         LINE#         4651
  C:B32DH         LINE#         4652
  C:B32FH         LINE#         4653
  C:B32FH         LINE#         4654
  C:B331H         LINE#         4656
  C:B331H         LINE#         4657
  C:B333H         LINE#         4658
  C:B333H         LINE#         4659
  C:B333H         LINE#         4660
  C:B335H         LINE#         4662
BL51 BANKED LINKER/LOCATER V6.22                                                      05/30/2019  12:42:35  PAGE 106


  C:B335H         LINE#         4663
  C:B338H         LINE#         4664
  C:B338H         LINE#         4665
  C:B33AH         LINE#         4667
  C:B33AH         LINE#         4668
  C:B33CH         LINE#         4669
  C:B33CH         LINE#         4671
  C:B33FH         LINE#         4672
  -------         ENDPROC       _BLE_ANCS_SEND_CONTROL_POINT
  -------         PROC          _GETBLE_ATTRIBUTE_VALUE_DYNMCLNGTH
  D:0007H         SYMBOL        AttHandle
  D:0005H         SYMBOL        SizeAtt
  C:C873H         LINE#         4677
  C:C873H         LINE#         4678
  C:C873H         LINE#         4679
  C:C87FH         LINE#         4680
  C:C87FH         LINE#         4681
  C:C88AH         LINE#         4682
  C:C88AH         LINE#         4684
  C:C88DH         LINE#         4685
  -------         ENDPROC       _GETBLE_ATTRIBUTE_VALUE_DYNMCLNGTH
  -------         PROC          _BLE_PASSKEY_SET
  X:0B11H         SYMBOL        hexPasskey
  C:79DDH         LINE#         4690
  C:79E3H         LINE#         4691
  C:79E3H         LINE#         4692
  C:79EAH         LINE#         4693
  C:79EAH         LINE#         4694
  C:79F6H         LINE#         4695
  C:79FBH         LINE#         4696
  C:79FBH         LINE#         4697
  C:79FDH         LINE#         4698
  C:79FFH         LINE#         4699
  -------         ENDPROC       _BLE_PASSKEY_SET
  -------         PROC          PRCSS_PASSKEY_PAIRING_CONFIRM
  C:CA5DH         LINE#         4704
  C:CA5DH         LINE#         4705
  C:CA5DH         LINE#         4706
  C:CA60H         LINE#         4707
  C:CA60H         LINE#         4708
  C:CA67H         LINE#         4709
  C:CA67H         LINE#         4710
  C:CA6AH         LINE#         4711
  C:CA6AH         LINE#         4713
  C:CA6CH         LINE#         4714
  C:CA6CH         LINE#         4715
  -------         ENDPROC       PRCSS_PASSKEY_PAIRING_CONFIRM
  -------         PROC          _CHKIFBLE_ATT_CHR_ACSS_BYUSER
  D:0007H         SYMBOL        AttHandle
  C:CA3AH         LINE#         4720
  C:CA3AH         LINE#         4721
  C:CA3AH         LINE#         4722
  C:CA46H         LINE#         4723
  C:CA46H         LINE#         4724
  C:CA49H         LINE#         4725
  C:CA49H         LINE#         4727
  C:CA49H         LINE#         4728
BL51 BANKED LINKER/LOCATER V6.22                                                      05/30/2019  12:42:35  PAGE 107


  C:CA4BH         LINE#         4729
  C:CA4BH         LINE#         4730
  -------         ENDPROC       _CHKIFBLE_ATT_CHR_ACSS_BYUSER
  -------         PROC          BLE_GETIDENTIFICATIONRESULT
  C:0303H         LINE#         4735
  C:0303H         LINE#         4736
  C:0303H         LINE#         4737
  C:0305H         LINE#         4739
  C:030AH         LINE#         4740
  -------         ENDPROC       BLE_GETIDENTIFICATIONRESULT
  -------         ENDMOD        HOST

  -------         MODULE        LINKLAYER
  C:0000H         SYMBOL        _ICE_DUMMY_
  X:058BH         PUBLIC        ll_ConnSupervisionTimer
  X:058FH         PUBLIC        connectEstablish_LossCounter
  B:0021H.0       PUBLIC        chk_senddataflag
  C:BBD9H         PUBLIC        GenerationLTK
  D:0080H         PUBLIC        P0
  D:0090H         PUBLIC        P1
  B:0021H.1       PUBLIC        resendFlag
  B:0021H.2       PUBLIC        wintec_encrypt_status
  D:00A0H         PUBLIC        P2
  C:CC0CH         PUBLIC        Prcss_LL_LENGTH_RSP
  X:05ECH         PUBLIC        dcbuf_index
  X:02F7H         PUBLIC        smp_SKDm
  C:CBD1H         PUBLIC        BLE_GetwhiteList_Status
  D:00B0H         PUBLIC        P3
  X:04BBH         PUBLIC        temp_k
  X:057CH         PUBLIC        battery_result
  B:0021H.3       PUBLIC        latency_cal_flag
  X:014DH         PUBLIC        param_Conn
  X:083BH         PUBLIC        write_service
  C:937DH         PUBLIC        Prcss_LL_START_ENC_RSP
  X:05D8H         PUBLIC        instant
  B:0021H.4       PUBLIC        oldRxData_flag
  C:C780H         PUBLIC        _BLE_SetWhiteList
  C:B4E5H         PUBLIC        _BLE_ADV_Cmd
  C:C9BFH         PUBLIC        A8107_WriteAESKey
  X:0463H         PUBLIC        smp_IRKm
  C:C195H         PUBLIC        LL_FEATURE
  C:1918H         PUBLIC        Prcss_LL_ENC_REQ
  X:0153H         PUBLIC        connectRxHeader
  X:05DFH         PUBLIC        target_tmrcnt
  C:CB0DH         PUBLIC        CONNECT_ACK_enable
  X:02CBH         PUBLIC        connectTxHeader
  C:CA7DH         PUBLIC        BLE_GetTerminateResult
  X:0000H         PUBLIC        rf_config_w
  B:0021H.5       PUBLIC        AutoSet_BatteryResultFlag
  X:0453H         PUBLIC        k_AES_passkey
  X:0571H         PUBLIC        update_result
  B:0021H.6       PUBLIC        PassKey_Pairing_Go
  B:0021H.7       PUBLIC        aTT_INDICATION_Packet_Sent
  C:AEE4H         PUBLIC        RxData_Process
  X:05C5H         PUBLIC        timeout
  B:0022H.0       PUBLIC        enc_refresh
  B:0022H.1       PUBLIC        md_NonReceived
BL51 BANKED LINKER/LOCATER V6.22                                                      05/30/2019  12:42:35  PAGE 108


  X:05A5H         PUBLIC        rx_PKT_NUM
  B:0022H.2       PUBLIC        ltk_generator_start
  C:6620H         PUBLIC        TxData_Process
  C:C12AH         PUBLIC        _SetADV_TO
  X:05BEH         PUBLIC        winsize
  D:00A8H         PUBLIC        IE
  C:C760H         PUBLIC        _SetADV_Type
  X:05A9H         PUBLIC        tx_PKT_NUM
  X:0553H         PUBLIC        pdutype
  X:0558H         PUBLIC        connectGo_LossCounter
  C:034EH         PUBLIC        BLE_whiteList_Disable
  C:C968H         PUBLIC        BLE_GetConnectUpdateResult
  C:CC06H         PUBLIC        Prcss_LL_CONNECT_PARAM_REQ
  X:05FCH         PUBLIC        syncErrCnt
  X:055BH         PUBLIC        rxLLID
  B:0022H.3       PUBLIC        ll_Packet_Sent
  C:032EH         PUBLIC        BLE_SetTerminate
  B:0022H.4       PUBLIC        txData_STOP
  X:05EBH         PUBLIC        rx_DCAverage
  X:0580H         PUBLIC        send_length
  C:CC01H         PUBLIC        Prcss_LL_ENC_RSP
  C:0326H         PUBLIC        SetBLE_ConnDis
  X:05F0H         PUBLIC        random_mac_addr
  X:05D2H         PUBLIC        newInterval
  X:0557H         PUBLIC        connectReqHeader0
  C:B340H         PUBLIC        _Prcss_LL_Control_PDU
  X:0564H         PUBLIC        numUsedChannels
  C:CB73H         PUBLIC        BLE_GetLinkLossCount
  X:0577H         PUBLIC        smp_PReq_Init_Key_Distr
  C:C0E4H         PUBLIC        SetBLE_ConnectUpdate
  D:00B8H         PUBLIC        IP
  C:C09BH         PUBLIC        _SetBLE_SN_NESN
  X:05CFH         PUBLIC        newWinSize
  X:00CDH         PUBLIC        adv_buffer
  B:0022H.5       PUBLIC        channelMapInd
  X:057FH         PUBLIC        ancs_send_length
  X:0573H         PUBLIC        write_event_length
  B:0022H.6       PUBLIC        lossoffset_enable
  X:0550H         PUBLIC        ImmAlertLevel
  X:05E4H         PUBLIC        latency_cnt
  B:0022H.7       PUBLIC        connectParameterUpdateInd
  X:0593H         PUBLIC        mDEventCounter
  C:CC05H         PUBLIC        Prcss_LL_SLAVE_FEATURE_REQ
  X:05E3H         PUBLIC        disconnect_reason
  X:0561H         PUBLIC        unmappedChannel
  X:0578H         PUBLIC        smp_PReq_Resp_Key_Distr
  X:010DH         PUBLIC        smp_Para_Bond
  C:CC07H         PUBLIC        Prcss_LL_CONNECT_PARAM_RSP
  X:0581H         PUBLIC        L2cap_Identifier
  X:083EH         PUBLIC        USER_ADVSETTING
  X:0493H         PUBLIC        IV
  C:C9D4H         PUBLIC        Init_q_att_HDL_PreWr
  C:B0DBH         PUBLIC        SetBLE_Channel
  C:C83AH         PUBLIC        SetBLE_LLBusy
  C:9698H         PUBLIC        MD_Procedure
  X:05D4H         PUBLIC        newLatency
  B:0023H.0       PUBLIC        nobondflag
BL51 BANKED LINKER/LOCATER V6.22                                                      05/30/2019  12:42:35  PAGE 109


  C:CB7CH         PUBLIC        _Consumer_pairing_rule_select
  X:05F6H         PUBLIC        master_mac_addr
  C:7FEAH         PUBLIC        _Consumer_SetBonding_Use_oldkey
  C:C81CH         PUBLIC        RandNumberGenerator
  C:0346H         PUBLIC        BLE_whiteList_Enable
  B:0023H.1       PUBLIC        InitAttServParamterFlag
  C:C951H         PUBLIC        _SetADV_TO_CTRL
  X:059FH         PUBLIC        batterydetect_cnt
  X:05E6H         PUBLIC        DCBuf
  X:0566H         PUBLIC        smp_Phase
  C:B03AH         PUBLIC        RxPacket
  B:0023H.2       PUBLIC        passkey_only_flag
  C:C923H         PUBLIC        _SetADV_Channel
  X:05A1H         PUBLIC        connectEmptyCnt
  X:0848H         PUBLIC        q_att_HDL_PreWr
  C:C6B5H         PUBLIC        SetBLE_LLTerminate
  X:02C9H         PUBLIC        oldConnectTxHeader
  C:BD83H         PUBLIC        smpAES
  X:057EH         PUBLIC        ancs_state
  X:057AH         PUBLIC        smp_Authorization
  X:059BH         PUBLIC        att_server_length
  C:CB39H         PUBLIC        SmpPasskey_init
  C:C8F3H         PUBLIC        _Consumer_SetBonding_status
  X:054EH         PUBLIC        rxwindow_cnt
  C:A81BH         PUBLIC        _BLE_SetConnectParameterUpdateRequest
  X:0582H         PUBLIC        ancs_status
  B:0023H.3       PUBLIC        chk_ancs_CP_flag
  C:B7F5H         PUBLIC        GetBLE_LinkMessage
  B:0023H.4       PUBLIC        BLE_ANCS_NotificationEvent
  D:0087H         PUBLIC        PCON
  B:0023H.5       PUBLIC        connectUpdate_sync_ok
  X:0443H         PUBLIC        smp_Temp16
  X:04CBH         PUBLIC        aes_Temp
  X:0595H         PUBLIC        slaveTerminateCounter
  X:04ABH         PUBLIC        sessionKey
  C:CBD7H         PUBLIC        BLE_GetDisConnectReason
  C:7752H         PUBLIC        BLE_SLAVE_PROCESS
  D:0098H         PUBLIC        SCON
  X:0562H         PUBLIC        lastUnmappedChannel
  D:0088H         PUBLIC        TCON
  C:CC08H         PUBLIC        Prcss_LL_REJECT_IND_EXT
  C:CBCBH         PUBLIC        BLE_GetPwrstate
  X:055EH         PUBLIC        nesn
  X:04DBH         PUBLIC        special_handle
  X:059DH         PUBLIC        att_bond_length
  X:05D6H         PUBLIC        newTimeout
  X:05CEH         PUBLIC        sca
  B:0023H.6       PUBLIC        pairing_failed
  X:0599H         PUBLIC        tmpInstant
  X:0169H         PUBLIC        connect_rxbuffer
  B:0023H.7       PUBLIC        supervisionTimeoutFlag
  X:006FH         PUBLIC        adv_data
  X:054FH         PUBLIC        ble_state
  X:02EDH         PUBLIC        smp_Rand
  X:05DAH         PUBLIC        newusedChannelIndex
  X:0555H         PUBLIC        check_CRC
  C:B17BH         PUBLIC        CheckBLETimer
BL51 BANKED LINKER/LOCATER V6.22                                                      05/30/2019  12:42:35  PAGE 110


  C:B86EH         PUBLIC        SetBLE_TimeInterval_WinOffset
  X:05BFH         PUBLIC        winOffset
  X:088BH         PUBLIC        RSP_PAIRING_REQUEST_TABLE
  C:CADFH         PUBLIC        InitBLEsmp
  X:055CH         PUBLIC        rxmd
  C:035EH         PUBLIC        _SetBLE_ConnTxData
  X:0565H         PUBLIC        selectChannelIndex
  C:C16DH         PUBLIC        BLE_CH
  C:033EH         PUBLIC        BLE_AutoPwrDown_Disable
  C:C2A2H         PUBLIC        _A8107_RX_PKT_NUM
  X:05B1H         PUBLIC        iniAddr
  X:0569H         PUBLIC        txmd
  X:02FFH         PUBLIC        smp_IVm
  B:0024H.0       PUBLIC        latency_cal_ok_flag
  C:C505H         PUBLIC        Prcss_LL_FEATURE_REQ
  B:0024H.1       PUBLIC        whiteList_flag
  C:C2DDH         PUBLIC        _A8107_TX_PKT_NUM
  B:0024H.2       PUBLIC        adv_state
  X:008FH         PUBLIC        scan_resp_data
  B:0024H.3       PUBLIC        wintec_encryption
  X:0591H         PUBLIC        connectEstablish_CRCErrorCounter
  X:0589H         PUBLIC        advcounter
  X:0554H         PUBLIC        addr_type
  B:0024H.4       PUBLIC        powersaving_state
  X:0586H         PUBLIC        ancs_notfoundcnt
  X:0587H         PUBLIC        rssi
  X:0597H         PUBLIC        ll_BusyCounter
  B:0024H.5       PUBLIC        bonded_device
  C:CBC5H         PUBLIC        ADV_ACK_disable
  X:0563H         PUBLIC        remappingIndex
  B:0024H.6       PUBLIC        slaveTerminateCounterStart
  C:B6FDH         PUBLIC        Consumer_BondingResult_Clear
  C:A00DH         PUBLIC        _smpC1
  C:CA12H         PUBLIC        A8107_ReadAESData
  C:C5BCH         PUBLIC        _SetBLE_ConnTxData_ATT_ERROR_RESPONSE
  X:0585H         PUBLIC        bonding_counter
  X:02A9H         PUBLIC        SPIBuffer
  C:B459H         PUBLIC        Prcss_LL_CONNECTION_UPDATE_REQ
  C:CB2EH         PUBLIC        SetBLE_ConnDisSlv
  B:0024H.7       PUBLIC        update_parameterflag
  X:054DH         PUBLIC        powerlevel
  C:C63CH         PUBLIC        Prcss_LL_VERSION_IND
  C:CC03H         PUBLIC        Prcss_LL_FEATURE_RSP
  C:1FF3H         PUBLIC        BLE_GetConnectParameter
  X:05BBH         PUBLIC        ble_crc
  X:052BH         PUBLIC        updateparameter
  B:0025H.0       PUBLIC        encryption_flag
  X:0552H         PUBLIC        tmpHeader0
  C:031EH         PUBLIC        Prcss_LL_TERMINATE_IND
  C:888EH         PUBLIC        AckData_Process
  X:0559H         PUBLIC        tmpHeader1
  C:C538H         PUBLIC        BLE_AutoPwrDown_Enable
  X:0303H         PUBLIC        smp_Para_Bond_tmp
  B:0025H.1       PUBLIC        Scan_Requset_flag
  C:2CEBH         PUBLIC        AdvGo
  X:056EH         PUBLIC        terminate_result
  D:00E8H         PUBLIC        EIE
BL51 BANKED LINKER/LOCATER V6.22                                                      05/30/2019  12:42:35  PAGE 111


  X:0473H         PUBLIC        smp_CSRKm
  D:0091H         PUBLIC        EIF
  X:056BH         PUBLIC        transmitSeqNum
  B:0025H.2       PUBLIC        bonded_device_exist
  C:C6FDH         PUBLIC        Consumer_Bonding_success
  C:ACBAH         PUBLIC        InitBLEsw
  C:C38DH         PUBLIC        _SetADV_Timing
  X:055FH         PUBLIC        connect_rxindex
  B:0025H.3       PUBLIC        ll_BusyCounterStart
  C:C353H         PUBLIC        _smpS1
  C:CBBFH         PUBLIC        ADV_ACK_enable
  X:056AH         PUBLIC        nextExpectedSeqNum
  X:0560H         PUBLIC        pending_number
  B:0025H.4       PUBLIC        sync_timing_err
  C:CA26H         PUBLIC        A8107_WriteAESData
  C:A8EEH         PUBLIC        _SetBLE_ConnTxCtrl
  X:0483H         PUBLIC        LongTermKey
  C:BA08H         PUBLIC        _BLE_InitImmediateAlertLevel
  X:0567H         PUBLIC        state_CCM
  B:0025H.5       PUBLIC        identification_result
  B:0025H.6       PUBLIC        security_success_flag
  X:0584H         PUBLIC        usercrystalCL
  B:0025H.7       PUBLIC        md_mode
  X:05EEH         PUBLIC        RandNumberCounter
  X:02CDH         PUBLIC        oldConnectTxData
  B:0026H.0       PUBLIC        identification_event
  X:058DH         PUBLIC        connectEventCounter
  X:050BH         PUBLIC        DataBuffer
  C:8000H         PUBLIC        InitBLE_AttServParamter
  X:00AFH         PUBLIC        whitList_addr
  X:02F5H         PUBLIC        smp_EDIV
  X:0579H         PUBLIC        smp_TempDef
  X:0568H         PUBLIC        status_TRXCCM
  B:0026H.1       PUBLIC        masterTerminateInd
  B:0026H.2       PUBLIC        txTransmitOKFlag
  X:056DH         PUBLIC        mD_CRCErrorCounter
  B:0026H.3       PUBLIC        txBufferFullFlag
  B:0026H.4       PUBLIC        BLE_PassKey_Event
  X:0575H         PUBLIC        smp_PReq_IO_Capab
  C:CC09H         PUBLIC        Prcss_LL_PING_REQ
  X:05E1H         PUBLIC        check_stable
  C:CB18H         PUBLIC        TMR_Interrupt_disable
  X:05CCH         PUBLIC        hop_sca
  X:055DH         PUBLIC        sn
  X:0583H         PUBLIC        ancs_NotifiEvent_length
  X:0572H         PUBLIC        aTT_MTU
  X:049BH         PUBLIC        SKD
  C:CC04H         PUBLIC        Prcss_LL_REJECT_IND
  X:056CH         PUBLIC        mDTimeOutCounter
  X:0551H         PUBLIC        LLSAlertLevel
  B:0026H.5       PUBLIC        encrypt_new_ltk
  B:0026H.6       PUBLIC        OTA_PROCESS_FLAG
  X:057BH         PUBLIC        smp_Encryption
  C:CB8EH         PUBLIC        _SetBLE_AdvLength
  X:0570H         PUBLIC        pending_index
  X:04EBH         PUBLIC        ancs_Buffer
  B:0026H.7       PUBLIC        BLE_writeEventFlag
BL51 BANKED LINKER/LOCATER V6.22                                                      05/30/2019  12:42:35  PAGE 112


  C:C93AH         PUBLIC        _SetADV_RND_CTRL
  X:0155H         PUBLIC        connect_rxHeaderBuffer
  X:05D0H         PUBLIC        newWinOffset
  D:00C8H         PUBLIC        T2CON
  C:B77BH         PUBLIC        Prcss_LL_PAUSE_ENC_REQ
  C:BE77H         PUBLIC        DC_Shift
  X:05ADH         PUBLIC        seed_32
  C:CB02H         PUBLIC        _SetBLE_AdvPDU
  C:7416H         PUBLIC        InitBLE
  X:05C1H         PUBLIC        interval
  X:0576H         PUBLIC        smp_PReq_OOB_data
  X:0533H         PUBLIC        LTK
  B:0027H.0       PUBLIC        slaveTerminateInd
  C:B940H         PUBLIC        Prcss_LL_CHANNEL_MAP_REQ
  X:056FH         PUBLIC        terminateflag
  C:CAC6H         PUBLIC        BLE_GetConnectServerAddress
  B:0027H.1       PUBLIC        fast_winoffset
  C:CC0AH         PUBLIC        Prcss_LL_PING_RSP
  X:05C7H         PUBLIC        usedChannelIndex
  X:0343H         PUBLIC        FlashData
  X:055AH         PUBLIC        rxdataLength
  C:0356H         PUBLIC        Consumer_Encryption_struct
  C:8687H         PUBLIC        SetBLE_TimeInterval_Connect
  X:0543H         PUBLIC        LTK_SEED
  X:0896H         PUBLIC        ancs_notification_service
  B:0027H.2       PUBLIC        pairing_rule_select
  X:0556H         PUBLIC        ble_RxAdd_Type
  C:CC02H         PUBLIC        Prcss_LL_UNKNOWN_RSP
  B:0027H.3       PUBLIC        latency_flag
  B:0027H.4       PUBLIC        ancs_enable
  X:05B7H         PUBLIC        accessAddr
  B:0027H.5       PUBLIC        keep_old_key
  B:0027H.6       PUBLIC        connect_state
  C:CB96H         PUBLIC        TMR_Interrupt_enable
  C:5D56H         PUBLIC        ConnectEstablish
  X:05EDH         PUBLIC        std_dc
  X:05CDH         PUBLIC        hopIncrement
  X:05C3H         PUBLIC        latency
  C:CC0BH         PUBLIC        Prcss_LL_LENGTH_REQ
  C:C612H         PUBLIC        Prcss_LL_PAUSE_ENC_RSP
  C:CAEBH         PUBLIC        RandomSeedCount
  C:BD2FH         PUBLIC        InitBLEsmp_re
  C:CBA6H         PUBLIC        BLE_GetEmptyCount
  X:0899H         PUBLIC        partial_result
  C:CB23H         PUBLIC        CONNECT_ACK_disable
  C:AB3EH         PUBLIC        _SetADV_RUN_CTRL
  C:BA6AH         PUBLIC        _BLE_InitLinkLossAlertLevel
  X:0574H         PUBLIC        smp_Security_Mode
  C:C19DH         PUBLIC        SPECIAL_SERVICE
  C:C051H         PUBLIC        Prcss_LL_START_ENC_REQ
  B:0027H.7       PUBLIC        Timer500ms_flag
  B:0028H.0       PUBLIC        internalRC
  X:05EFH         PUBLIC        RandDelay
  X:057DH         PUBLIC        specialserviceflag
  D:00D0H         PUBLIC        PSW
  C:C6DAH         PUBLIC        _SetBLE_check_SN_NESN
  B:0028H.1       PUBLIC        data_double
BL51 BANKED LINKER/LOCATER V6.22                                                      05/30/2019  12:42:35  PAGE 113


  B:0028H.2       PUBLIC        Timer500ms
  C:CA4CH         PUBLIC        Consumer_GetBonding_Result
  C:3576H         SYMBOL        Com052E
  C:3576H         SYMBOL        L?1327
  C:3576H         SYMBOL        L?1328
  C:3579H         SYMBOL        L?1329
  C:357EH         SYMBOL        L?1330
  C:3582H         SYMBOL        L?1331
  C:3584H         SYMBOL        L?1332
  C:3599H         SYMBOL        L?1333
  C:3599H         SYMBOL        L?1334
  C:35A2H         SYMBOL        L?1335
  C:35A8H         SYMBOL        L?1336
  C:35A9H         SYMBOL        L?1337
  C:35B1H         SYMBOL        L?1338
  C:35D4H         SYMBOL        L?1339
  C:35D8H         SYMBOL        L?1340
  C:35DDH         SYMBOL        L?1341
  C:35E1H         SYMBOL        L?1342
  C:35E2H         SYMBOL        L?1343
  C:35E3H         SYMBOL        L?1344
  C:35EBH         SYMBOL        L?1345
  C:35F8H         SYMBOL        L?1346
  C:35FCH         SYMBOL        L?1347
  C:3603H         SYMBOL        L?1348
  C:3603H         SYMBOL        L?1349
  C:360BH         SYMBOL        L?1350
  C:360CH         SYMBOL        L?1351
  C:3612H         SYMBOL        L?1352
  C:362AH         SYMBOL        L?1353
  C:362BH         SYMBOL        L?1354
  C:362EH         SYMBOL        L?1355
  C:3636H         SYMBOL        L?1356
  C:3636H         SYMBOL        L?1357
  C:364AH         SYMBOL        L?1358
  C:3652H         SYMBOL        L?1359
  C:369DH         SYMBOL        L?1360
  C:36A3H         SYMBOL        L?1361
  C:36AAH         SYMBOL        L?1362
  C:36AAH         SYMBOL        L?1363
  C:36ADH         SYMBOL        L?1364
  C:36B2H         SYMBOL        L?1365
  C:36B3H         SYMBOL        L?1366
  C:36BAH         SYMBOL        L?1367
  C:36BAH         SYMBOL        L?1368
  C:36CDH         SYMBOL        L?1369
  C:36D6H         SYMBOL        L?1370
  C:36DBH         SYMBOL        L?1371
  C:36E4H         SYMBOL        L?1372
  C:36E7H         SYMBOL        L?1373
  C:36E8H         SYMBOL        L?1374
  C:36EFH         SYMBOL        L?1375
  C:3715H         SYMBOL        L?1376
  C:371EH         SYMBOL        L?1377
  C:3727H         SYMBOL        L?1378
  C:3727H         SYMBOL        L?1379
  C:3736H         SYMBOL        L?1380
BL51 BANKED LINKER/LOCATER V6.22                                                      05/30/2019  12:42:35  PAGE 114


  C:373AH         SYMBOL        L?1381
  C:3745H         SYMBOL        L?1382
  C:375AH         SYMBOL        L?1383
  C:375BH         SYMBOL        L?1384
  C:3762H         SYMBOL        L?1385
  C:3762H         SYMBOL        L?1386
  C:3769H         SYMBOL        L?1387
  C:376AH         SYMBOL        L?1388
  C:3773H         SYMBOL        L?1389
  C:3773H         SYMBOL        L?1390
  C:3778H         SYMBOL        L?1391
  C:3785H         SYMBOL        L?1392
  C:378DH         SYMBOL        L?1393
  C:378DH         SYMBOL        L?1394
  C:378FH         SYMBOL        L?1395
  C:3792H         SYMBOL        L?1396
  C:3798H         SYMBOL        L?1397
  C:379FH         SYMBOL        L?1399
  C:37A2H         SYMBOL        L?1400
  C:37A7H         SYMBOL        L?1401
  C:37A9H         SYMBOL        L?1402
  C:37B1H         SYMBOL        L?1403
  C:37B1H         SYMBOL        L?1404
  C:37BBH         SYMBOL        L?1405
  C:37C6H         SYMBOL        L?1406
  C:37C6H         SYMBOL        L?1407
  C:37C9H         SYMBOL        L?1408
  C:37DDH         SYMBOL        L?1409
  C:37DDH         SYMBOL        L?1410
  C:37E0H         SYMBOL        L?1411
  C:37E2H         SYMBOL        L?1412
  C:37E3H         SYMBOL        L?1413
  C:37ECH         SYMBOL        L?1414
  C:37ECH         SYMBOL        L?1415
  C:37F4H         SYMBOL        L?1417
  C:37F4H         SYMBOL        L?1418
  C:37FDH         SYMBOL        L?1419
  C:37FDH         SYMBOL        L?1420
  C:3809H         SYMBOL        L?1421
  C:3810H         SYMBOL        L?1422
  C:3819H         SYMBOL        L?1423
  C:3820H         SYMBOL        L?1424
  C:382AH         SYMBOL        L?1425
  C:382AH         SYMBOL        L?1426
  C:383BH         SYMBOL        L?1427
  C:383BH         SYMBOL        L?1428
  C:3842H         SYMBOL        L?1429
  C:384AH         SYMBOL        L?1430
  C:384AH         SYMBOL        L?1431
  C:3851H         SYMBOL        L?1432
  C:385DH         SYMBOL        L?1433
  C:3869H         SYMBOL        L?1434
  C:3869H         SYMBOL        L?1435
  C:3875H         SYMBOL        L?1436
  C:387CH         SYMBOL        L?1437
  C:3880H         SYMBOL        L?1438
  C:3884H         SYMBOL        L?1439
BL51 BANKED LINKER/LOCATER V6.22                                                      05/30/2019  12:42:35  PAGE 115


  C:3885H         SYMBOL        L?1440
  C:388EH         SYMBOL        L?1441
  C:38B5H         SYMBOL        L?1442
  C:38B5H         SYMBOL        L?1443
  C:38BCH         SYMBOL        L?1444
  C:38BCH         SYMBOL        L?1445
  C:38CBH         SYMBOL        L?1446
  C:38CBH         SYMBOL        L?1447
  C:38D3H         SYMBOL        L?1448
  C:38DDH         SYMBOL        L?1450
  C:38EAH         SYMBOL        L?1451
  C:38F0H         SYMBOL        L?1452
  C:38F1H         SYMBOL        L?1453
  C:38F2H         SYMBOL        L?1454
  C:38F9H         SYMBOL        L?1455
  C:38F9H         SYMBOL        L?1456
  C:38FBH         SYMBOL        L?1457
  C:3904H         SYMBOL        L?1458
  C:3904H         SYMBOL        L?1459
  C:3907H         SYMBOL        L?1460
  C:390FH         SYMBOL        L?1461
  C:390FH         SYMBOL        L?1462
  C:391AH         SYMBOL        L?1463
  C:391CH         SYMBOL        L?1464
  C:391FH         SYMBOL        L?1465
  C:3927H         SYMBOL        L?1466
  C:3927H         SYMBOL        L?1467
  C:3929H         SYMBOL        L?1468
  C:3931H         SYMBOL        L?1469
  C:3931H         SYMBOL        L?1470
  C:3934H         SYMBOL        L?1471
  C:393BH         SYMBOL        L?1472
  C:393DH         SYMBOL        L?1473
  C:3946H         SYMBOL        L?1474
  C:3946H         SYMBOL        L?1475
  C:3953H         SYMBOL        L?1476
  C:3955H         SYMBOL        L?1477
  C:395DH         SYMBOL        L?1478
  C:395DH         SYMBOL        L?1479
  C:3962H         SYMBOL        L?1480
  C:396AH         SYMBOL        L?1481
  C:396AH         SYMBOL        L?1482
  C:3973H         SYMBOL        L?1483
  C:3973H         SYMBOL        L?1484
  C:397CH         SYMBOL        L?1485
  C:397CH         SYMBOL        L?1486
  C:3988H         SYMBOL        L?1487
  C:3988H         SYMBOL        L?1488
  C:3998H         SYMBOL        L?1491
  C:3998H         SYMBOL        L?1492
  C:399FH         SYMBOL        L?1493
  C:399FH         SYMBOL        L?1494
  C:39A2H         SYMBOL        L?1495
  C:39ABH         SYMBOL        L?1496
  C:39ABH         SYMBOL        L?1497
  C:39ACH         SYMBOL        L?1498
  C:39ADH         SYMBOL        L?1499
BL51 BANKED LINKER/LOCATER V6.22                                                      05/30/2019  12:42:35  PAGE 116


  C:39B4H         SYMBOL        L?1500
  C:39B4H         SYMBOL        L?1501
  C:39C2H         SYMBOL        L?1502
  C:39C2H         SYMBOL        L?1503
  C:39D0H         SYMBOL        L?1504
  C:39D0H         SYMBOL        L?1505
  C:39D9H         SYMBOL        L?1506
  C:39D9H         SYMBOL        L?1507
  C:39E1H         SYMBOL        L?1508
  C:39E4H         SYMBOL        L?1509
  C:39F0H         SYMBOL        L?1510
  C:39F0H         SYMBOL        L?1511
  C:39F1H         SYMBOL        L?1512
  C:39F8H         SYMBOL        L?1513
  C:3A07H         SYMBOL        L?1514
  C:3A13H         SYMBOL        L?1515
  C:3A15H         SYMBOL        L?1516
  C:3A1EH         SYMBOL        L?1517
  C:3A20H         SYMBOL        L?1518
  C:3A29H         SYMBOL        L?1519
  C:3A2BH         SYMBOL        L?1520
  C:3A34H         SYMBOL        L?1521
  C:3A48H         SYMBOL        L?1522
  C:3A5CH         SYMBOL        L?1523
  C:3A5DH         SYMBOL        L?1524
  C:3A66H         SYMBOL        L?1525
  C:3A79H         SYMBOL        L?1526
  C:3A79H         SYMBOL        L?1527
  C:3A85H         SYMBOL        L?1528
  C:3A85H         SYMBOL        L?1529
  C:3A91H         SYMBOL        L?1530
  C:3AA5H         SYMBOL        L?1531
  C:3AA5H         SYMBOL        L?1532
  C:3AA7H         SYMBOL        L?1533
  C:3AAFH         SYMBOL        L?1534
  C:3AAFH         SYMBOL        L?1535
  C:3AB5H         SYMBOL        L?1536
  C:3ABCH         SYMBOL        L?1537
  C:3AC4H         SYMBOL        L?1538
  C:3ACDH         SYMBOL        L?1539
  C:3AD0H         SYMBOL        L?1540
  C:3AD7H         SYMBOL        L?1541
  C:3AD7H         SYMBOL        L?1542
  C:3ADEH         SYMBOL        L?1543
  C:3AF1H         SYMBOL        L?1544
  C:3AF1H         SYMBOL        L?1545
  C:3AF4H         SYMBOL        L?1546
  C:3AFBH         SYMBOL        L?1547
  C:3AFFH         SYMBOL        L?1548
  C:3B08H         SYMBOL        L?1549
  C:3B1AH         SYMBOL        L?1550
  C:3B1AH         SYMBOL        L?1551
  C:3B25H         SYMBOL        L?1552
  C:3B26H         SYMBOL        L?1553
  C:3B2EH         SYMBOL        L?1554
  C:3B2EH         SYMBOL        L?1555
  C:3B30H         SYMBOL        L?1556
BL51 BANKED LINKER/LOCATER V6.22                                                      05/30/2019  12:42:35  PAGE 117


  C:3B36H         SYMBOL        L?1557
  C:3B36H         SYMBOL        L?1558
  C:3B38H         SYMBOL        L?1559
  C:3B3EH         SYMBOL        L?1560
  C:3B3FH         SYMBOL        L?1561
  C:3B49H         SYMBOL        L?1562
  C:3B49H         SYMBOL        L?1563
  C:3B4BH         SYMBOL        L?1564
  C:3B51H         SYMBOL        L?1565
  C:3B51H         SYMBOL        L?1566
  C:3B58H         SYMBOL        L?1567
  C:3B58H         SYMBOL        L?1568
  C:3B5FH         SYMBOL        L?1569
  C:3B5FH         SYMBOL        L?1570
  C:3B66H         SYMBOL        L?1571
  C:3B66H         SYMBOL        L?1572
  C:3B70H         SYMBOL        L?1573
  C:3B70H         SYMBOL        L?1574
  C:3B77H         SYMBOL        L?1575
  C:3B77H         SYMBOL        L?1576
  C:3B7EH         SYMBOL        L?1577
  C:3B81H         SYMBOL        L?1578
  C:3B88H         SYMBOL        L?1579
  C:3B8CH         SYMBOL        L?1580
  C:3B94H         SYMBOL        L?1581
  C:3B94H         SYMBOL        L?1582
  C:3B9CH         SYMBOL        L?1583
  C:3B9CH         SYMBOL        L?1584
  C:3BA3H         SYMBOL        L?1587
  C:3BB1H         SYMBOL        L?1588
  C:3BB4H         SYMBOL        L?1589
  C:3BBCH         SYMBOL        L?1590
  C:3BC5H         SYMBOL        L?1591
  C:3BC8H         SYMBOL        L?1592
  C:3BD0H         SYMBOL        L?1593
  C:3BD0H         SYMBOL        L?1594
  C:3BD9H         SYMBOL        L?1595
  C:3BE1H         SYMBOL        L?1596
  C:3BEEH         SYMBOL        L?1597
  C:3BEEH         SYMBOL        L?1598
  C:3BF7H         SYMBOL        L?1599
  C:3BF7H         SYMBOL        L?1600
  C:3C00H         SYMBOL        L?1601
  C:3C00H         SYMBOL        L?1602
  C:3C09H         SYMBOL        L?1603
  C:3C11H         SYMBOL        L?1605
  C:3C1EH         SYMBOL        L?1606
  C:3C1EH         SYMBOL        L?1607
  C:3C25H         SYMBOL        L?1608
  C:3C25H         SYMBOL        L?1609
  C:3C2CH         SYMBOL        L?1610
  C:3C39H         SYMBOL        L?1611
  C:3C46H         SYMBOL        L?1612
  C:3C46H         SYMBOL        L?1613
  C:3C4DH         SYMBOL        L?1614
  C:3C4DH         SYMBOL        L?1615
  C:3C54H         SYMBOL        L?1616
BL51 BANKED LINKER/LOCATER V6.22                                                      05/30/2019  12:42:35  PAGE 118


  C:3C57H         SYMBOL        L?1617
  C:3C5EH         SYMBOL        L?1619
  C:3C5EH         SYMBOL        L?1620
  C:3C66H         SYMBOL        L?1621
  C:3C72H         SYMBOL        L?1622
  C:3C72H         SYMBOL        L?1623
  C:3C7AH         SYMBOL        L?1624
  C:3C83H         SYMBOL        L?1625
  C:3C85H         SYMBOL        L?1626
  C:3C8CH         SYMBOL        L?1627
  C:3C8CH         SYMBOL        L?1628
  C:3C94H         SYMBOL        L?1629
  C:3CA0H         SYMBOL        L?1630
  C:3CACH         SYMBOL        L?1631
  C:3CACH         SYMBOL        L?1632
  C:3CB4H         SYMBOL        L?1633
  C:3CC0H         SYMBOL        L?1634
  C:3CCCH         SYMBOL        L?1635
  C:3CD7H         SYMBOL        L?1636
  C:3CE2H         SYMBOL        L?1637
  C:3CECH         SYMBOL        L?1638
  C:3CF7H         SYMBOL        L?1639
  C:3D02H         SYMBOL        L?1640
  C:3D0DH         SYMBOL        L?1641
  C:3D0DH         SYMBOL        L?1642
  C:3D13H         SYMBOL        L?1643
  C:3D13H         SYMBOL        L?1644
  C:3D1AH         SYMBOL        L?1645
  C:3D1AH         SYMBOL        L?1646
  C:3D21H         SYMBOL        L?1647
  C:3D2BH         SYMBOL        L?1648
  C:3D2BH         SYMBOL        L?1649
  C:3D32H         SYMBOL        L?1650
  C:3D32H         SYMBOL        L?1651
  C:3D39H         SYMBOL        L?1652
  C:3D43H         SYMBOL        L?1653
  C:3D43H         SYMBOL        L?1654
  C:3D4AH         SYMBOL        L?1655
  -------         PROC          COM052E
  -------         ENDPROC       COM052E
  -------         PROC          _PRCSS_LL_CONTROL_PDU
  D:0007H         SYMBOL        select
  C:B340H         LINE#         419
  C:B340H         LINE#         420
  C:B340H         LINE#         421
  C:B38AH         LINE#         422
  C:B38AH         LINE#         423
  C:B38DH         LINE#         424
  C:B390H         LINE#         425
  C:B393H         LINE#         426
  C:B396H         LINE#         427
  C:B399H         LINE#         428
  C:B39CH         LINE#         429
  C:B39FH         LINE#         430
  C:B3A2H         LINE#         431
  C:B3A5H         LINE#         432
  C:B3A8H         LINE#         433
BL51 BANKED LINKER/LOCATER V6.22                                                      05/30/2019  12:42:35  PAGE 119


  C:B3ABH         LINE#         434
  C:B3AEH         LINE#         435
  C:B3B1H         LINE#         436
  C:B3B4H         LINE#         437
  C:B3B7H         LINE#         438
  C:B3BAH         LINE#         439
  C:B3BDH         LINE#         440
  C:B3C0H         LINE#         441
  C:B3C3H         LINE#         442
  C:B3C6H         LINE#         443
  C:B3C9H         LINE#         444
  C:B3CCH         LINE#         445
  C:B3CCH         LINE#         446
  C:B3CCH         LINE#         447
  -------         ENDPROC       _PRCSS_LL_CONTROL_PDU
  C:7732H         SYMBOL        L?1416
  C:7742H         SYMBOL        L?1489
  -------         PROC          INITBLE
  -------         DO            
  D:0006H         SYMBOL        server_param
  D:0004H         SYMBOL        server
  X:0AE3H         SYMBOL        tmp
  X:0AE6H         SYMBOL        i
  D:0005H         SYMBOL        j
  D:0004H         SYMBOL        handle_H
  D:0007H         SYMBOL        handle_L
  -------         ENDDO         
  C:7416H         LINE#         469
  C:7416H         LINE#         470
  C:7416H         LINE#         476
  C:741AH         LINE#         477
  C:741EH         LINE#         478
  C:7429H         LINE#         480
  C:742DH         LINE#         481
  C:7431H         LINE#         482
  C:743AH         LINE#         484
  C:743CH         LINE#         485
  C:743EH         LINE#         486
  C:7445H         LINE#         487
  C:7448H         LINE#         488
  C:744BH         LINE#         489
  C:744DH         LINE#         490
  C:744FH         LINE#         491
  C:7454H         LINE#         492
  C:7458H         LINE#         493
  C:745AH         LINE#         494
  C:745CH         LINE#         495
  C:7463H         LINE#         496
  C:7467H         LINE#         497
  C:746DH         LINE#         498
  C:746FH         LINE#         499
  C:7471H         LINE#         500
  C:7474H         LINE#         502
  C:7479H         LINE#         503
  C:747FH         LINE#         504
  C:747FH         LINE#         505
  C:7484H         LINE#         506
BL51 BANKED LINKER/LOCATER V6.22                                                      05/30/2019  12:42:35  PAGE 120


  C:7489H         LINE#         507
  C:7489H         LINE#         509
  C:748CH         LINE#         510
  C:748CH         LINE#         511
  C:74A4H         LINE#         512
  C:74B7H         LINE#         513
  C:74C9H         LINE#         515
  C:74CEH         LINE#         516
  C:74D3H         LINE#         517
  C:74D3H         LINE#         518
  C:74DEH         LINE#         519
  C:74E6H         LINE#         520
  C:74E6H         LINE#         521
  C:74E9H         LINE#         522
  C:74E9H         LINE#         523
  C:7509H         LINE#         524
  C:751BH         LINE#         525
  C:751DH         LINE#         526
  C:751DH         LINE#         527
  C:7520H         LINE#         529
  C:7520H         LINE#         530
  C:7522H         LINE#         532
  C:752BH         LINE#         533
  C:7534H         LINE#         534
  C:753DH         LINE#         535
  C:7546H         LINE#         536
  C:754FH         LINE#         537
  C:7558H         LINE#         539
  C:755BH         LINE#         540
  C:7585H         LINE#         542
  C:7588H         LINE#         543
  C:758FH         LINE#         545
  C:7592H         LINE#         546
  C:7592H         LINE#         547
  C:75ACH         LINE#         548
  C:75BEH         LINE#         550
  C:75C5H         LINE#         551
  C:75C5H         LINE#         554
  C:75CBH         LINE#         555
  C:75CEH         LINE#         556
  C:75D4H         LINE#         557
  C:75DAH         LINE#         558
  C:75DAH         LINE#         559
  C:75DEH         LINE#         560
  C:75E0H         LINE#         561
  C:75E2H         LINE#         565
  C:75E6H         LINE#         566
  C:75E7H         LINE#         567
  C:75E7H         LINE#         568
  C:75EAH         LINE#         570
  C:75EAH         LINE#         571
  C:75FAH         LINE#         572
  C:75FAH         LINE#         573
  C:7602H         LINE#         574
  C:7602H         LINE#         575
  C:7636H         LINE#         576
  C:7636H         LINE#         577
BL51 BANKED LINKER/LOCATER V6.22                                                      05/30/2019  12:42:35  PAGE 121


  C:7651H         LINE#         578
  C:7651H         LINE#         579
  C:7667H         LINE#         581
  C:7670H         LINE#         582
  C:767AH         LINE#         584
  C:768BH         LINE#         585
  C:768BH         LINE#         586
  C:7692H         LINE#         587
  C:7694H         LINE#         588
  C:7696H         LINE#         590
  C:7696H         LINE#         591
  C:7698H         LINE#         592
  C:7698H         LINE#         594
  C:76A6H         LINE#         595
  C:76B4H         LINE#         596
  C:76B6H         LINE#         597
  C:76B6H         LINE#         598
  C:76B6H         LINE#         599
  C:76B6H         LINE#         600
  C:76B6H         LINE#         601
  C:76BCH         LINE#         602
  C:76D3H         LINE#         603
  C:76DCH         LINE#         605
  C:76DFH         LINE#         606
  C:76E4H         LINE#         607
  C:76E6H         LINE#         608
  C:76E8H         LINE#         609
  C:76EAH         LINE#         610
  C:76FAH         LINE#         611
  C:76FDH         LINE#         612
  C:76FFH         LINE#         613
  C:7701H         LINE#         614
  C:7703H         LINE#         615
  C:7707H         LINE#         616
  C:7709H         LINE#         617
  C:770CH         LINE#         618
  C:770CH         LINE#         619
  C:771FH         LINE#         620
  C:7731H         LINE#         621
  -------         ENDPROC       INITBLE
  -------         PROC          _BLE_ADV_CMD
  X:0AE8H         SYMBOL        ADV_InitStruct
  -------         DO            
  D:0007H         SYMBOL        errorcode
  X:0AEBH         SYMBOL        tmp
  -------         ENDDO         
  C:B4E5H         LINE#         626
  C:B4E8H         LINE#         627
  C:B4E8H         LINE#         631
  C:B4E8H         LINE#         632
  C:B4EEH         LINE#         633
  C:B4F1H         LINE#         634
  C:B4F4H         LINE#         635
  C:B4F4H         LINE#         636
  C:B4FDH         LINE#         637
  C:B500H         LINE#         639
  C:B503H         LINE#         640
BL51 BANKED LINKER/LOCATER V6.22                                                      05/30/2019  12:42:35  PAGE 122


  C:B503H         LINE#         641
  C:B511H         LINE#         642
  C:B514H         LINE#         644
  C:B517H         LINE#         645
  C:B517H         LINE#         646
  C:B526H         LINE#         647
  C:B529H         LINE#         649
  C:B52CH         LINE#         650
  C:B52CH         LINE#         651
  C:B535H         LINE#         652
  C:B538H         LINE#         654
  C:B53BH         LINE#         655
  C:B53BH         LINE#         656
  C:B544H         LINE#         657
  C:B547H         LINE#         659
  C:B553H         LINE#         660
  C:B553H         LINE#         661
  C:B557H         LINE#         662
  C:B559H         LINE#         663
  C:B55DH         LINE#         664
  C:B55DH         LINE#         665
  C:B563H         LINE#         666
  C:B563H         LINE#         668
  C:B566H         LINE#         669
  C:B566H         LINE#         670
  C:B56CH         LINE#         671
  C:B56FH         LINE#         672
  C:B56FH         LINE#         673
  C:B56FH         LINE#         674
  C:B56FH         LINE#         675
  C:B56FH         LINE#         676
  C:B56FH         LINE#         677
  C:B56FH         LINE#         679
  C:B56FH         LINE#         680
  -------         ENDPROC       _BLE_ADV_CMD
  -------         PROC          _SETADV_CHANNEL
  D:0007H         SYMBOL        channel_set
  -------         DO            
  D:0006H         SYMBOL        errorcode
  -------         ENDDO         
  C:C923H         LINE#         685
  C:C923H         LINE#         686
  C:C923H         LINE#         689
  C:C925H         LINE#         691
  C:C92DH         LINE#         692
  C:C92DH         LINE#         693
  C:C92FH         LINE#         694
  C:C931H         LINE#         696
  C:C931H         LINE#         697
  C:C936H         LINE#         698
  C:C936H         LINE#         700
  C:C939H         LINE#         701
  -------         ENDPROC       _SETADV_CHANNEL
  -------         PROC          _SETADV_TYPE
  D:0007H         SYMBOL        type_set
  -------         DO            
  D:0006H         SYMBOL        errorcode
BL51 BANKED LINKER/LOCATER V6.22                                                      05/30/2019  12:42:35  PAGE 123


  -------         ENDDO         
  C:C760H         LINE#         706
  C:C760H         LINE#         707
  C:C760H         LINE#         710
  C:C762H         LINE#         712
  C:C773H         LINE#         713
  C:C773H         LINE#         714
  C:C775H         LINE#         715
  C:C777H         LINE#         717
  C:C777H         LINE#         718
  C:C77CH         LINE#         719
  C:C77CH         LINE#         721
  C:C77FH         LINE#         722
  -------         ENDPROC       _SETADV_TYPE
  -------         PROC          _SETADV_TIMING
  D:0006H         SYMBOL        timing_set
  -------         DO            
  D:0005H         SYMBOL        errorcode
  -------         ENDDO         
  C:C38DH         LINE#         727
  C:C38DH         LINE#         728
  C:C38DH         LINE#         731
  C:C38FH         LINE#         733
  C:C398H         LINE#         734
  C:C398H         LINE#         735
  C:C39AH         LINE#         736
  C:C39CH         LINE#         738
  C:C39CH         LINE#         739
  C:C3A3H         LINE#         740
  C:C3A3H         LINE#         741
  C:C3AAH         LINE#         742
  C:C3ACH         LINE#         744
  C:C3ACH         LINE#         745
  C:C3C2H         LINE#         746
  C:C3C2H         LINE#         747
  C:C3C2H         LINE#         749
  C:C3C5H         LINE#         750
  -------         ENDPROC       _SETADV_TIMING
  -------         PROC          _SETADV_TO
  X:0B31H         SYMBOL        timeout_set
  -------         DO            
  X:0B33H         SYMBOL        errorcode
  -------         ENDDO         
  C:C12AH         LINE#         755
  C:C132H         LINE#         756
  C:C132H         LINE#         759
  C:C135H         LINE#         761
  C:C150H         LINE#         762
  C:C150H         LINE#         763
  C:C156H         LINE#         764
  C:C158H         LINE#         766
  C:C158H         LINE#         767
  C:C167H         LINE#         768
  C:C167H         LINE#         770
  C:C16CH         LINE#         771
  -------         ENDPROC       _SETADV_TO
  -------         PROC          _SETADV_RND_CTRL
BL51 BANKED LINKER/LOCATER V6.22                                                      05/30/2019  12:42:35  PAGE 124


  D:0007H         SYMBOL        random_set
  -------         DO            
  D:0006H         SYMBOL        errorcode
  -------         ENDDO         
  C:C93AH         LINE#         776
  C:C93AH         LINE#         777
  C:C93AH         LINE#         780
  C:C93CH         LINE#         782
  C:C944H         LINE#         783
  C:C944H         LINE#         784
  C:C946H         LINE#         785
  C:C948H         LINE#         787
  C:C948H         LINE#         788
  C:C94DH         LINE#         789
  C:C94DH         LINE#         791
  C:C950H         LINE#         792
  -------         ENDPROC       _SETADV_RND_CTRL
  -------         PROC          _SETADV_TO_CTRL
  D:0007H         SYMBOL        toctrl_set
  -------         DO            
  D:0006H         SYMBOL        errorcode
  -------         ENDDO         
  C:C951H         LINE#         797
  C:C951H         LINE#         798
  C:C951H         LINE#         801
  C:C953H         LINE#         803
  C:C95BH         LINE#         804
  C:C95BH         LINE#         805
  C:C95DH         LINE#         806
  C:C95FH         LINE#         808
  C:C95FH         LINE#         809
  C:C964H         LINE#         810
  C:C964H         LINE#         812
  C:C967H         LINE#         813
  -------         ENDPROC       _SETADV_TO_CTRL
  C:ABF2H         SYMBOL        L?1656
  -------         PROC          _SETADV_RUN_CTRL
  X:0B4AH         SYMBOL        runctrl_set
  -------         DO            
  X:0B4BH         SYMBOL        errorcode
  -------         ENDDO         
  C:AB3EH         LINE#         818
  C:AB43H         LINE#         819
  C:AB43H         LINE#         822
  C:AB46H         LINE#         824
  C:AB51H         LINE#         825
  C:AB51H         LINE#         826
  C:AB51H         LINE#         827
  C:AB54H         LINE#         829
  C:AB54H         LINE#         830
  C:AB5AH         LINE#         831
  C:AB5AH         LINE#         832
  C:AB62H         LINE#         833
  C:AB62H         LINE#         834
  C:AB65H         LINE#         836
  C:AB6DH         LINE#         837
  C:AB74H         LINE#         838
BL51 BANKED LINKER/LOCATER V6.22                                                      05/30/2019  12:42:35  PAGE 125


  C:AB79H         LINE#         839
  C:AB7BH         LINE#         840
  C:AB7CH         LINE#         841
  C:AB7FH         LINE#         842
  C:AB87H         LINE#         843
  C:AB94H         LINE#         844
  C:AB97H         LINE#         845
  C:AB99H         LINE#         846
  C:AB9CH         LINE#         847
  C:AB9EH         LINE#         848
  C:ABA1H         LINE#         849
  C:ABA3H         LINE#         850
  C:ABA7H         LINE#         851
  C:ABAAH         LINE#         852
  C:ABACH         LINE#         854
  C:ABACH         LINE#         855
  C:ABACH         LINE#         856
  C:ABACH         LINE#         857
  C:ABAEH         LINE#         858
  C:ABB7H         LINE#         859
  C:ABB7H         LINE#         860
  C:ABBFH         LINE#         861
  C:ABBFH         LINE#         862
  C:ABC0H         LINE#         863
  C:ABC2H         LINE#         865
  C:ABC2H         LINE#         866
  C:ABC7H         LINE#         867
  C:ABCCH         LINE#         868
  C:ABCEH         LINE#         869
  C:ABD2H         LINE#         870
  C:ABD5H         LINE#         871
  C:ABD5H         LINE#         872
  C:ABD8H         LINE#         873
  C:ABD8H         LINE#         874
  C:ABDAH         LINE#         875
  C:ABE6H         LINE#         876
  C:ABE6H         LINE#         877
  C:ABECH         LINE#         878
  C:ABECH         LINE#         879
  C:ABECH         LINE#         881
  C:ABF1H         LINE#         882
  -------         ENDPROC       _SETADV_RUN_CTRL
  -------         PROC          INITBLE_ATTSERVPARAMTER
  -------         DO            
  X:0A79H         SYMBOL        i
  X:0A7BH         SYMBOL        j
  X:0A7DH         SYMBOL        size
  X:0A7EH         SYMBOL        offset
  X:0A7FH         SYMBOL        prmt
  -------         ENDDO         
  C:8000H         LINE#         887
  C:8000H         LINE#         888
  C:8000H         LINE#         892
  C:8002H         LINE#         894
  C:8016H         LINE#         895
  C:801FH         LINE#         896
  C:801FH         LINE#         897
BL51 BANKED LINKER/LOCATER V6.22                                                      05/30/2019  12:42:35  PAGE 126


  C:803AH         LINE#         898
  C:8040H         LINE#         899
  C:8040H         LINE#         900
  C:804AH         LINE#         901
  C:804EH         LINE#         902
  C:8050H         LINE#         904
  C:8050H         LINE#         905
  C:8065H         LINE#         906
  C:8069H         LINE#         907
  C:8069H         LINE#         908
  C:8084H         LINE#         909
  C:8084H         LINE#         910
  C:80BBH         LINE#         911
  C:80C4H         LINE#         912
  C:80CBH         LINE#         913
  C:80CBH         LINE#         914
  C:80FAH         LINE#         915
  C:80FAH         LINE#         916
  C:8104H         LINE#         917
  C:8107H         LINE#         919
  C:810AH         LINE#         920
  C:812CH         LINE#         921
  C:812FH         LINE#         922
  C:8151H         LINE#         923
  C:8154H         LINE#         924
  C:8176H         LINE#         925
  C:8179H         LINE#         926
  C:819BH         LINE#         927
  C:819EH         LINE#         928
  C:81C0H         LINE#         929
  C:81C3H         LINE#         930
  C:81E5H         LINE#         931
  C:81E8H         LINE#         932
  C:820AH         LINE#         933
  C:820DH         LINE#         934
  C:822FH         LINE#         935
  C:8232H         LINE#         936
  C:8254H         LINE#         937
  -------         ENDPROC       INITBLE_ATTSERVPARAMTER
  C:79CFH         SYMBOL        L?1585
  C:79D6H         SYMBOL        L?1657
  -------         PROC          BLE_SLAVE_PROCESS
  -------         DO            
  D:0004H         SYMBOL        advtmp
  -------         ENDDO         
  C:7752H         LINE#         942
  C:7752H         LINE#         943
  C:7752H         LINE#         946
  C:7752H         LINE#         947
  C:7758H         LINE#         949
  C:775BH         LINE#         951
  C:7760H         LINE#         952
  C:7760H         LINE#         953
  C:7766H         LINE#         955
  C:776EH         LINE#         956
  C:776EH         LINE#         957
  C:7781H         LINE#         958
BL51 BANKED LINKER/LOCATER V6.22                                                      05/30/2019  12:42:35  PAGE 127


  C:7785H         LINE#         959
  C:7788H         LINE#         960
  C:7788H         LINE#         962
  C:7790H         LINE#         963
  C:7790H         LINE#         964
  C:77A2H         LINE#         965
  C:77A2H         LINE#         966
  C:77A7H         LINE#         967
  C:77A7H         LINE#         968
  C:77A7H         LINE#         969
  C:77AAH         LINE#         970
  C:77ACH         LINE#         971
  C:77B4H         LINE#         972
  C:77B7H         LINE#         973
  C:77B7H         LINE#         974
  C:77B7H         LINE#         975
  C:77B7H         LINE#         977
  C:77BAH         LINE#         979
  C:77C1H         LINE#         980
  C:77C1H         LINE#         981
  C:77C1H         LINE#         982
  C:77C4H         LINE#         983
  C:77C7H         LINE#         984
  C:77D2H         LINE#         985
  C:77D2H         LINE#         986
  C:77D2H         LINE#         987
  C:77D5H         LINE#         989
  C:77DBH         LINE#         990
  C:77DBH         LINE#         991
  C:77EEH         LINE#         992
  C:77EEH         LINE#         993
  C:77F4H         LINE#         994
  C:77F4H         LINE#         995
  C:77F7H         LINE#         996
  C:77F9H         LINE#         997
  C:7806H         LINE#         998
  C:7806H         LINE#         999
  C:7809H         LINE#         1000
  C:780BH         LINE#         1001
  C:7818H         LINE#         1002
  C:7818H         LINE#         1003
  C:781BH         LINE#         1004
  C:781BH         LINE#         1005
  C:781BH         LINE#         1006
  C:781BH         LINE#         1008
  C:7827H         LINE#         1009
  C:7827H         LINE#         1010
  C:782AH         LINE#         1011
  C:782AH         LINE#         1012
  C:782DH         LINE#         1013
  C:782FH         LINE#         1014
  C:7831H         LINE#         1015
  C:7834H         LINE#         1016
  C:7834H         LINE#         1017
  C:7842H         LINE#         1018
  C:7844H         LINE#         1019
  C:7846H         LINE#         1020
BL51 BANKED LINKER/LOCATER V6.22                                                      05/30/2019  12:42:35  PAGE 128


  C:7849H         LINE#         1021
  C:7849H         LINE#         1022
  C:7857H         LINE#         1023
  C:7859H         LINE#         1024
  C:7859H         LINE#         1025
  C:7859H         LINE#         1026
  C:7859H         LINE#         1028
  C:785CH         LINE#         1029
  C:785CH         LINE#         1030
  C:785FH         LINE#         1032
  C:786DH         LINE#         1033
  C:786DH         LINE#         1034
  C:7874H         LINE#         1036
  C:7874H         LINE#         1037
  C:787AH         LINE#         1039
  C:787DH         LINE#         1041
  C:787DH         LINE#         1042
  C:7880H         LINE#         1043
  C:7880H         LINE#         1044
  C:7880H         LINE#         1045
  C:7883H         LINE#         1046
  C:7889H         LINE#         1047
  C:7889H         LINE#         1048
  C:788FH         LINE#         1049
  C:788FH         LINE#         1050
  C:7892H         LINE#         1051
  C:78AFH         LINE#         1052
  C:78AFH         LINE#         1054
  C:78B5H         LINE#         1055
  C:78B8H         LINE#         1056
  C:78BAH         LINE#         1057
  C:78BCH         LINE#         1063
  C:78C2H         LINE#         1064
  C:78C4H         LINE#         1066
  C:78C4H         LINE#         1067
  C:78CAH         LINE#         1068
  C:78CAH         LINE#         1069
  C:78CFH         LINE#         1070
  C:78CFH         LINE#         1071
  C:78D2H         LINE#         1072
  C:78D4H         LINE#         1073
  C:78D9H         LINE#         1074
  C:78DCH         LINE#         1075
  C:78E2H         LINE#         1076
  C:78E7H         LINE#         1077
  C:78EDH         LINE#         1078
  C:78EDH         LINE#         1079
  C:78F0H         LINE#         1080
  C:78F3H         LINE#         1081
  C:78F6H         LINE#         1082
  C:78F9H         LINE#         1083
  C:790DH         LINE#         1084
  C:790DH         LINE#         1085
  C:7914H         LINE#         1086
  C:7914H         LINE#         1087
  C:7914H         LINE#         1088
  C:7916H         LINE#         1090
BL51 BANKED LINKER/LOCATER V6.22                                                      05/30/2019  12:42:35  PAGE 129


  C:7916H         LINE#         1091
  C:7919H         LINE#         1092
  C:791CH         LINE#         1093
  C:791CH         LINE#         1094
  C:791CH         LINE#         1096
  C:7922H         LINE#         1097
  C:793CH         LINE#         1098
  C:793CH         LINE#         1099
  C:793FH         LINE#         1100
  C:7946H         LINE#         1101
  C:7946H         LINE#         1103
  C:794BH         LINE#         1105
  C:795CH         LINE#         1106
  C:795CH         LINE#         1107
  C:795FH         LINE#         1108
  C:7964H         LINE#         1109
  C:7964H         LINE#         1111
  C:797BH         LINE#         1112
  C:797BH         LINE#         1113
  C:7981H         LINE#         1114
  C:7984H         LINE#         1115
  C:798AH         LINE#         1116
  C:798EH         LINE#         1117
  C:798EH         LINE#         1118
  C:7990H         LINE#         1119
  C:7990H         LINE#         1120
  C:7990H         LINE#         1122
  C:799DH         LINE#         1123
  C:799DH         LINE#         1124
  C:79A0H         LINE#         1126
  C:79A3H         LINE#         1127
  C:79A5H         LINE#         1128
  C:79ABH         LINE#         1129
  C:79ABH         LINE#         1130
  C:79B2H         LINE#         1131
  C:79B2H         LINE#         1132
  C:79B5H         LINE#         1133
  C:79BAH         LINE#         1134
  C:79BDH         LINE#         1135
  C:79BDH         LINE#         1136
  C:79BDH         LINE#         1138
  C:79C3H         LINE#         1139
  C:79C6H         LINE#         1141
  C:79CEH         LINE#         1142
  -------         ENDPROC       BLE_SLAVE_PROCESS
  C:356BH         SYMBOL        L?1586
  -------         PROC          ADVGO
  -------         DO            
  B:0029H.1       SYMBOL        errorcode
  X:09A1H         SYMBOL        advch_map
  X:09A2H         SYMBOL        i
  X:09A3H         SYMBOL        tmpTimeout
  X:09A5H         SYMBOL        tmpInterval
  X:09A7H         SYMBOL        tmpLatency
  X:09A9H         SYMBOL        tmpWinOffset
  X:09ABH         SYMBOL        writePtr
  X:09ADH         SYMBOL        writePtr2
BL51 BANKED LINKER/LOCATER V6.22                                                      05/30/2019  12:42:35  PAGE 130


  X:09B0H         SYMBOL        j
  X:09B2H         SYMBOL        realpwr
  -------         ENDDO         
  C:2CEBH         LINE#         1147
  C:2CEBH         LINE#         1148
  C:2CEBH         LINE#         1156
  C:2CEEH         LINE#         1157
  C:2CF1H         LINE#         1158
  C:2CF7H         LINE#         1159
  C:2CFBH         LINE#         1160
  C:2CFBH         LINE#         1161
  C:2CFEH         LINE#         1163
  C:2D04H         LINE#         1164
  C:2D04H         LINE#         1165
  C:2D0EH         LINE#         1166
  C:2D0EH         LINE#         1167
  C:2D11H         LINE#         1169
  C:2D11H         LINE#         1170
  C:2D20H         LINE#         1171
  C:2D20H         LINE#         1172
  C:2D31H         LINE#         1173
  C:2D31H         LINE#         1174
  C:2D31H         LINE#         1175
  C:2D31H         LINE#         1176
  C:2D31H         LINE#         1177
  C:2D37H         LINE#         1178
  C:2D41H         LINE#         1180
  C:2D6DH         LINE#         1181
  C:2D6DH         LINE#         1182
  C:2D75H         LINE#         1183
  C:2D7DH         LINE#         1184
  C:2D85H         LINE#         1185
  C:2D8DH         LINE#         1186
  C:2D94H         LINE#         1187
  C:2D9CH         LINE#         1188
  C:2DA4H         LINE#         1189
  C:2DACH         LINE#         1190
  C:2DB4H         LINE#         1191
  C:2DBCH         LINE#         1192
  C:2DC2H         LINE#         1193
  C:2DC2H         LINE#         1194
  C:2DC2H         LINE#         1196
  C:2DCCH         LINE#         1197
  C:2DCCH         LINE#         1199
  C:2DD3H         LINE#         1200
  C:2DD3H         LINE#         1201
  C:2DD6H         LINE#         1203
  C:2DD6H         LINE#         1204
  C:2DE5H         LINE#         1205
  C:2DE5H         LINE#         1206
  C:2DF6H         LINE#         1207
  C:2DF6H         LINE#         1208
  C:2DF6H         LINE#         1209
  C:2DF6H         LINE#         1210
  C:2DF6H         LINE#         1211
  C:2DFCH         LINE#         1212
  C:2E06H         LINE#         1214
BL51 BANKED LINKER/LOCATER V6.22                                                      05/30/2019  12:42:35  PAGE 131


  C:2E10H         LINE#         1215
  C:2E10H         LINE#         1217
  C:2E17H         LINE#         1218
  C:2E17H         LINE#         1219
  C:2E1AH         LINE#         1221
  C:2E1AH         LINE#         1222
  C:2E29H         LINE#         1223
  C:2E29H         LINE#         1224
  C:2E3AH         LINE#         1225
  C:2E3AH         LINE#         1226
  C:2E3AH         LINE#         1227
  C:2E3AH         LINE#         1228
  C:2E3AH         LINE#         1229
  C:2E40H         LINE#         1230
  C:2E4AH         LINE#         1232
  C:2E54H         LINE#         1233
  C:2E54H         LINE#         1235
  C:2E56H         LINE#         1236
  C:2E56H         LINE#         1238
  C:2E59H         LINE#         1239
  C:2E5CH         LINE#         1241
  C:2E66H         LINE#         1242
  C:2E6AH         LINE#         1244
  C:2E6FH         LINE#         1245
  C:2E72H         LINE#         1247
  C:2E78H         LINE#         1248
  C:2E78H         LINE#         1249
  C:2E7BH         LINE#         1250
  C:2E7BH         LINE#         1252
  C:2E8EH         LINE#         1253
  C:2E8EH         LINE#         1254
  C:2EB0H         LINE#         1255
  C:2EB0H         LINE#         1256
  C:2EBDH         LINE#         1257
  C:2EC1H         LINE#         1258
  C:2EDAH         LINE#         1259
  C:2EDDH         LINE#         1261
  C:2EE3H         LINE#         1262
  C:2EE3H         LINE#         1263
  C:2EEEH         LINE#         1264
  C:2EF3H         LINE#         1265
  C:2EF3H         LINE#         1266
  C:2EFBH         LINE#         1267
  C:2F04H         LINE#         1268
  C:2F04H         LINE#         1270
  C:2F04H         LINE#         1271
  C:2F10H         LINE#         1272
  C:2F15H         LINE#         1273
  C:2F15H         LINE#         1274
  C:2F25H         LINE#         1275
  C:2F2CH         LINE#         1276
  C:2F2CH         LINE#         1278
  C:2F33H         LINE#         1279
  C:2F33H         LINE#         1280
  C:2F38H         LINE#         1281
  C:2F3DH         LINE#         1282
  C:2F3DH         LINE#         1283
BL51 BANKED LINKER/LOCATER V6.22                                                      05/30/2019  12:42:35  PAGE 132


  C:2F54H         LINE#         1284
  C:2F5DH         LINE#         1285
  C:2F5DH         LINE#         1287
  C:2F5DH         LINE#         1288
  C:2F60H         LINE#         1289
  C:2F6BH         LINE#         1290
  C:2F6BH         LINE#         1291
  C:2F7FH         LINE#         1292
  C:2F84H         LINE#         1293
  C:2F84H         LINE#         1295
  C:2F8AH         LINE#         1296
  C:2F8CH         LINE#         1297
  C:2F8CH         LINE#         1298
  C:2F92H         LINE#         1299
  C:2F96H         LINE#         1300
  C:2F99H         LINE#         1301
  C:2F9EH         LINE#         1302
  C:2FACH         LINE#         1303
  C:2FAEH         LINE#         1304
  C:2FB1H         LINE#         1305
  C:2FB6H         LINE#         1306
  C:2FB9H         LINE#         1307
  C:2FC7H         LINE#         1308
  C:2FD3H         LINE#         1309
  C:2FD6H         LINE#         1310
  C:2FDCH         LINE#         1311
  C:2FE0H         LINE#         1312
  C:2FE3H         LINE#         1313
  C:2FEEH         LINE#         1314
  C:2FEEH         LINE#         1315
  C:3002H         LINE#         1316
  C:3007H         LINE#         1317
  C:301AH         LINE#         1319
  C:3028H         LINE#         1320
  C:3028H         LINE#         1321
  C:302FH         LINE#         1322
  C:302FH         LINE#         1323
  C:3034H         LINE#         1324
  C:3034H         LINE#         1325
  C:303CH         LINE#         1326
  C:3043H         LINE#         1327
  C:304EH         LINE#         1329
  C:3056H         LINE#         1330
  C:3056H         LINE#         1331
  C:305AH         LINE#         1332
  C:305AH         LINE#         1333
  C:306BH         LINE#         1334
  C:3072H         LINE#         1336
  C:3074H         LINE#         1337
  C:3079H         LINE#         1338
  C:3079H         LINE#         1339
  C:308EH         LINE#         1340
  C:308EH         LINE#         1341
  C:30A5H         LINE#         1342
  C:30A5H         LINE#         1343
  C:30BAH         LINE#         1344
  C:30BAH         LINE#         1345
BL51 BANKED LINKER/LOCATER V6.22                                                      05/30/2019  12:42:35  PAGE 133


  C:30D1H         LINE#         1346
  C:30D1H         LINE#         1347
  C:30E6H         LINE#         1348
  C:30E6H         LINE#         1349
  C:30FDH         LINE#         1350
  C:30FDH         LINE#         1351
  C:30FFH         LINE#         1352
  C:3101H         LINE#         1353
  C:3101H         LINE#         1354
  C:3101H         LINE#         1355
  C:3101H         LINE#         1356
  C:3101H         LINE#         1357
  C:3101H         LINE#         1358
  C:3101H         LINE#         1359
  C:3104H         LINE#         1360
  C:310CH         LINE#         1362
  C:310FH         LINE#         1363
  C:310FH         LINE#         1364
  C:3112H         LINE#         1365
  C:3117H         LINE#         1366
  C:3117H         LINE#         1367
  C:3117H         LINE#         1368
  C:3117H         LINE#         1370
  C:3123H         LINE#         1372
  C:3128H         LINE#         1373
  C:3128H         LINE#         1374
  C:312BH         LINE#         1375
  C:3130H         LINE#         1376
  C:3133H         LINE#         1378
  C:3133H         LINE#         1379
  C:3136H         LINE#         1381
  C:315EH         LINE#         1382
  C:315EH         LINE#         1383
  C:3164H         LINE#         1384
  C:3164H         LINE#         1385
  C:3166H         LINE#         1386
  C:3168H         LINE#         1388
  C:3168H         LINE#         1389
  C:3171H         LINE#         1390
  C:3171H         LINE#         1392
  C:3174H         LINE#         1394
  C:3179H         LINE#         1395
  C:3179H         LINE#         1396
  C:317FH         LINE#         1397
  C:317FH         LINE#         1398
  C:3188H         LINE#         1399
  C:3188H         LINE#         1400
  C:318AH         LINE#         1401
  C:318AH         LINE#         1404
  C:318AH         LINE#         1405
  C:3193H         LINE#         1406
  C:3193H         LINE#         1407
  C:3193H         LINE#         1408
  C:3193H         LINE#         1409
  C:3193H         LINE#         1410
  C:319AH         LINE#         1412
  C:31A2H         LINE#         1413
BL51 BANKED LINKER/LOCATER V6.22                                                      05/30/2019  12:42:35  PAGE 134


  C:31A2H         LINE#         1414
  C:31B0H         LINE#         1415
  C:31B5H         LINE#         1416
  C:31B8H         LINE#         1417
  C:31BDH         LINE#         1418
  C:31BFH         LINE#         1420
  C:31BFH         LINE#         1421
  C:31C1H         LINE#         1422
  C:31C6H         LINE#         1423
  C:31DDH         LINE#         1424
  C:31DDH         LINE#         1426
  C:31E9H         LINE#         1428
  C:3208H         LINE#         1429
  C:3208H         LINE#         1430
  C:3208H         LINE#         1431
  C:320BH         LINE#         1432
  C:320DH         LINE#         1433
  C:320DH         LINE#         1434
  C:3213H         LINE#         1435
  C:3217H         LINE#         1437
  C:3225H         LINE#         1438
  C:322AH         LINE#         1439
  C:322DH         LINE#         1440
  C:3230H         LINE#         1442
  C:3235H         LINE#         1443
  C:3235H         LINE#         1444
  C:323BH         LINE#         1445
  C:323BH         LINE#         1446
  C:3244H         LINE#         1447
  C:3244H         LINE#         1448
  C:3246H         LINE#         1449
  C:3246H         LINE#         1452
  C:3246H         LINE#         1453
  C:324FH         LINE#         1454
  C:324FH         LINE#         1455
  C:324FH         LINE#         1456
  C:324FH         LINE#         1457
  C:324FH         LINE#         1458
  C:3256H         LINE#         1460
  C:3261H         LINE#         1461
  C:3261H         LINE#         1462
  C:3261H         LINE#         1464
  C:3261H         LINE#         1465
  C:326BH         LINE#         1466
  C:326FH         LINE#         1468
  C:3280H         LINE#         1469
  C:329DH         LINE#         1471
  C:32AAH         LINE#         1472
  C:32BCH         LINE#         1473
  C:32CDH         LINE#         1474
  C:32E2H         LINE#         1476
  C:32FCH         LINE#         1477
  C:32FCH         LINE#         1478
  C:32FCH         LINE#         1479
  C:330CH         LINE#         1480
  C:330CH         LINE#         1481
  C:330CH         LINE#         1482
BL51 BANKED LINKER/LOCATER V6.22                                                      05/30/2019  12:42:35  PAGE 135


  C:3347H         LINE#         1483
  C:3347H         LINE#         1484
  C:3347H         LINE#         1485
  C:3390H         LINE#         1486
  C:3390H         LINE#         1487
  C:3390H         LINE#         1488
  C:3390H         LINE#         1489
  C:3396H         LINE#         1491
  C:33A0H         LINE#         1492
  C:33ABH         LINE#         1493
  C:33ABH         LINE#         1494
  C:33ABH         LINE#         1495
  C:33ABH         LINE#         1497
  C:33B3H         LINE#         1498
  C:33B3H         LINE#         1499
  C:33B5H         LINE#         1500
  C:33B7H         LINE#         1502
  C:33D9H         LINE#         1503
  C:33D9H         LINE#         1504
  C:33DEH         LINE#         1505
  C:33E2H         LINE#         1506
  C:33E4H         LINE#         1507
  C:33E9H         LINE#         1508
  C:33EBH         LINE#         1510
  C:33EBH         LINE#         1511
  C:33EBH         LINE#         1512
  C:33EEH         LINE#         1513
  C:33EEH         LINE#         1515
  C:33F1H         LINE#         1517
  C:33F4H         LINE#         1518
  C:33F7H         LINE#         1520
  C:3400H         LINE#         1521
  C:3404H         LINE#         1523
  C:3409H         LINE#         1524
  C:3409H         LINE#         1525
  C:3425H         LINE#         1526
  C:342CH         LINE#         1528
  C:3434H         LINE#         1529
  C:3437H         LINE#         1531
  C:343CH         LINE#         1532
  C:343CH         LINE#         1533
  C:3444H         LINE#         1534
  C:344CH         LINE#         1535
  C:3453H         LINE#         1540
  C:347DH         LINE#         1542
  C:3481H         LINE#         1543
  C:3481H         LINE#         1544
  C:3483H         LINE#         1545
  C:348BH         LINE#         1546
  C:348BH         LINE#         1548
  C:3494H         LINE#         1549
  C:349DH         LINE#         1551
  C:34A2H         LINE#         1552
  C:34A2H         LINE#         1553
  C:34B6H         LINE#         1554
  C:34C0H         LINE#         1555
  C:34C7H         LINE#         1557
BL51 BANKED LINKER/LOCATER V6.22                                                      05/30/2019  12:42:35  PAGE 136


  C:34CFH         LINE#         1558
  C:34D6H         LINE#         1559
  C:34DAH         LINE#         1560
  C:34DAH         LINE#         1561
  C:34DFH         LINE#         1562
  C:34E1H         LINE#         1564
  C:34EBH         LINE#         1565
  C:34EFH         LINE#         1567
  C:3500H         LINE#         1568
  C:3500H         LINE#         1569
  C:350BH         LINE#         1570
  C:3510H         LINE#         1572
  C:3515H         LINE#         1573
  C:3519H         LINE#         1574
  C:3519H         LINE#         1575
  C:3535H         LINE#         1576
  C:3535H         LINE#         1577
  C:353BH         LINE#         1578
  C:353BH         LINE#         1579
  C:3542H         LINE#         1580
  C:3548H         LINE#         1581
  C:354DH         LINE#         1582
  C:354EH         LINE#         1583
  C:354EH         LINE#         1584
  C:354EH         LINE#         1586
  C:354EH         LINE#         1587
  C:3551H         LINE#         1588
  C:3556H         LINE#         1589
  C:3556H         LINE#         1591
  C:355BH         LINE#         1592
  C:355EH         LINE#         1593
  C:3561H         LINE#         1594
  C:3561H         LINE#         1595
  C:3561H         LINE#         1596
  C:356AH         LINE#         1597
  -------         ENDPROC       ADVGO
  -------         PROC          INITBLESW
  C:ACBAH         LINE#         1602
  C:ACBAH         LINE#         1603
  C:ACBAH         LINE#         1604
  C:ACBFH         LINE#         1605
  C:ACC1H         LINE#         1606
  C:ACCBH         LINE#         1607
  C:ACD0H         LINE#         1608
  C:ACD4H         LINE#         1609
  C:ACD6H         LINE#         1610
  C:ACD8H         LINE#         1611
  C:ACD8H         LINE#         1612
  C:ACDBH         LINE#         1613
  C:ACE1H         LINE#         1614
  C:ACE3H         LINE#         1615
  C:ACE5H         LINE#         1616
  C:ACE7H         LINE#         1617
  C:ACE9H         LINE#         1618
  C:ACEBH         LINE#         1619
  C:ACEFH         LINE#         1620
  C:ACF1H         LINE#         1621
BL51 BANKED LINKER/LOCATER V6.22                                                      05/30/2019  12:42:35  PAGE 137


  C:ACF3H         LINE#         1622
  C:ACF7H         LINE#         1623
  C:ACFBH         LINE#         1624
  C:ACFEH         LINE#         1625
  C:AD00H         LINE#         1626
  C:AD07H         LINE#         1627
  C:AD09H         LINE#         1628
  C:AD0BH         LINE#         1629
  C:AD0FH         LINE#         1630
  C:AD13H         LINE#         1631
  C:AD16H         LINE#         1632
  C:AD18H         LINE#         1634
  C:AD1EH         LINE#         1635
  C:AD20H         LINE#         1636
  C:AD22H         LINE#         1637
  C:AD27H         LINE#         1638
  C:AD29H         LINE#         1639
  C:AD2BH         LINE#         1640
  C:AD2DH         LINE#         1641
  C:AD31H         LINE#         1642
  C:AD35H         LINE#         1643
  C:AD37H         LINE#         1644
  C:AD39H         LINE#         1645
  C:AD3BH         LINE#         1646
  C:AD41H         LINE#         1648
  C:AD43H         LINE#         1649
  C:AD45H         LINE#         1650
  C:AD47H         LINE#         1651
  C:AD4CH         LINE#         1652
  C:AD4EH         LINE#         1654
  C:AD50H         LINE#         1655
  C:AD52H         LINE#         1656
  C:AD54H         LINE#         1657
  C:AD58H         LINE#         1658
  C:AD5AH         LINE#         1659
  C:AD5EH         LINE#         1660
  C:AD60H         LINE#         1661
  C:AD62H         LINE#         1662
  C:AD64H         LINE#         1663
  C:AD66H         LINE#         1664
  C:AD68H         LINE#         1665
  C:AD6AH         LINE#         1666
  C:AD6CH         LINE#         1667
  C:AD6EH         LINE#         1668
  C:AD72H         LINE#         1669
  -------         ENDPROC       INITBLESW
  -------         PROC          INITBLESMP_RE
  -------         DO            
  D:0007H         SYMBOL        i
  -------         ENDDO         
  C:BD2FH         LINE#         1675
  C:BD2FH         LINE#         1676
  C:BD2FH         LINE#         1679
  C:BD34H         LINE#         1680
  C:BD36H         LINE#         1681
  C:BD38H         LINE#         1682
  C:BD3AH         LINE#         1683
BL51 BANKED LINKER/LOCATER V6.22                                                      05/30/2019  12:42:35  PAGE 138


  C:BD3CH         LINE#         1684
  C:BD46H         LINE#         1685
  C:BD50H         LINE#         1686
  C:BD55H         LINE#         1687
  C:BD59H         LINE#         1688
  C:BD5BH         LINE#         1689
  C:BD5BH         LINE#         1690
  C:BD5FH         LINE#         1691
  C:BD63H         LINE#         1692
  C:BD63H         LINE#         1693
  C:BD63H         LINE#         1694
  C:BD6DH         LINE#         1695
  C:BD6DH         LINE#         1696
  C:BD6FH         LINE#         1697
  C:BD6FH         LINE#         1698
  C:BD76H         LINE#         1699
  C:BD7DH         LINE#         1700
  C:BD82H         LINE#         1701
  -------         ENDPROC       INITBLESMP_RE
  -------         PROC          INITBLESMP
  C:CADFH         LINE#         1706
  C:CADFH         LINE#         1707
  C:CADFH         LINE#         1708
  C:CAE4H         LINE#         1709
  C:CAE8H         LINE#         1710
  -------         ENDPROC       INITBLESMP
  -------         PROC          _BLE_INITIMMEDIATEALERTLEVEL
  D:0007H         SYMBOL        tmplevel
  -------         DO            
  X:0B55H         SYMBOL        errorcode
  D:0007H         SYMBOL        i
  -------         ENDDO         
  C:BA08H         LINE#         1716
  C:BA08H         LINE#         1717
  C:BA08H         LINE#         1720
  C:BA0DH         LINE#         1722
  C:BA14H         LINE#         1723
  C:BA14H         LINE#         1724
  C:BA1AH         LINE#         1725
  C:BA1AH         LINE#         1726
  C:BA20H         LINE#         1727
  C:BA22H         LINE#         1729
  C:BA22H         LINE#         1730
  C:BA27H         LINE#         1732
  C:BA29H         LINE#         1734
  C:BA29H         LINE#         1735
  C:BA38H         LINE#         1736
  C:BA38H         LINE#         1737
  C:BA48H         LINE#         1738
  C:BA48H         LINE#         1739
  C:BA48H         LINE#         1740
  C:BA48H         LINE#         1741
  C:BA48H         LINE#         1742
  C:BA49H         LINE#         1743
  C:BA56H         LINE#         1745
  C:BA5CH         LINE#         1746
  C:BA5CH         LINE#         1747
BL51 BANKED LINKER/LOCATER V6.22                                                      05/30/2019  12:42:35  PAGE 139


  C:BA5EH         LINE#         1749
  C:BA5EH         LINE#         1750
  C:BA64H         LINE#         1751
  C:BA64H         LINE#         1753
  C:BA69H         LINE#         1754
  -------         ENDPROC       _BLE_INITIMMEDIATEALERTLEVEL
  -------         PROC          _BLE_INITLINKLOSSALERTLEVEL
  D:0007H         SYMBOL        tmplevel
  -------         DO            
  X:0B56H         SYMBOL        errorcode
  D:0007H         SYMBOL        i
  -------         ENDDO         
  C:BA6AH         LINE#         1759
  C:BA6AH         LINE#         1760
  C:BA6AH         LINE#         1763
  C:BA6FH         LINE#         1765
  C:BA76H         LINE#         1766
  C:BA76H         LINE#         1767
  C:BA7CH         LINE#         1768
  C:BA7CH         LINE#         1769
  C:BA82H         LINE#         1770
  C:BA84H         LINE#         1772
  C:BA84H         LINE#         1773
  C:BA89H         LINE#         1775
  C:BA8BH         LINE#         1777
  C:BA8BH         LINE#         1778
  C:BA9AH         LINE#         1779
  C:BA9AH         LINE#         1780
  C:BAAAH         LINE#         1781
  C:BAAAH         LINE#         1782
  C:BAAAH         LINE#         1783
  C:BAAAH         LINE#         1784
  C:BAAAH         LINE#         1785
  C:BAABH         LINE#         1786
  C:BAB8H         LINE#         1788
  C:BABEH         LINE#         1789
  C:BABEH         LINE#         1790
  C:BAC0H         LINE#         1792
  C:BAC0H         LINE#         1793
  C:BAC6H         LINE#         1794
  C:BAC6H         LINE#         1796
  C:BACBH         LINE#         1797
  -------         ENDPROC       _BLE_INITLINKLOSSALERTLEVEL
  -------         PROC          ADV_ACK_ENABLE
  C:CBBFH         LINE#         1802
  C:CBBFH         LINE#         1803
  C:CBBFH         LINE#         1804
  C:CBC1H         LINE#         1805
  C:CBC4H         LINE#         1806
  -------         ENDPROC       ADV_ACK_ENABLE
  -------         PROC          _SETBLE_ADVPDU
  D:0007H         SYMBOL        PDU_Type
  D:0005H         SYMBOL        TxAdd_Type
  D:0003H         SYMBOL        RxAdd_Type
  C:CB02H         LINE#         1811
  C:CB02H         LINE#         1812
  C:CB02H         LINE#         1813
BL51 BANKED LINKER/LOCATER V6.22                                                      05/30/2019  12:42:35  PAGE 140


  C:CB0CH         LINE#         1814
  -------         ENDPROC       _SETBLE_ADVPDU
  -------         PROC          _SETBLE_ADVLENGTH
  D:0007H         SYMBOL        Length
  C:CB8EH         LINE#         1819
  C:CB8EH         LINE#         1820
  C:CB8EH         LINE#         1821
  C:CB95H         LINE#         1822
  -------         ENDPROC       _SETBLE_ADVLENGTH
  -------         PROC          ADV_ACK_DISABLE
  C:CBC5H         LINE#         1827
  C:CBC5H         LINE#         1828
  C:CBC5H         LINE#         1829
  C:CBC7H         LINE#         1830
  C:CBCAH         LINE#         1831
  -------         ENDPROC       ADV_ACK_DISABLE
  -------         PROC          GETBLE_LINKMESSAGE
  C:B7F5H         LINE#         1836
  C:B7F5H         LINE#         1837
  C:B7F5H         LINE#         1838
  C:B7FDH         LINE#         1839
  C:B805H         LINE#         1840
  C:B80BH         LINE#         1842
  C:B819H         LINE#         1844
  C:B820H         LINE#         1845
  C:B820H         LINE#         1846
  C:B829H         LINE#         1847
  C:B833H         LINE#         1848
  C:B834H         LINE#         1850
  C:B834H         LINE#         1851
  C:B839H         LINE#         1852
  C:B841H         LINE#         1853
  C:B847H         LINE#         1854
  C:B855H         LINE#         1855
  C:B85FH         LINE#         1856
  C:B86DH         LINE#         1857
  C:B86DH         LINE#         1858
  -------         ENDPROC       GETBLE_LINKMESSAGE
  -------         PROC          RXPACKET
  -------         DO            
  D:0003H         SYMBOL        i
  -------         ENDDO         
  C:B03AH         LINE#         1863
  C:B03AH         LINE#         1864
  C:B03AH         LINE#         1867
  C:B043H         LINE#         1868
  C:B043H         LINE#         1869
  C:B04AH         LINE#         1870
  C:B04AH         LINE#         1871
  C:B059H         LINE#         1872
  C:B06CH         LINE#         1873
  C:B06CH         LINE#         1875
  C:B06CH         LINE#         1876
  C:B072H         LINE#         1877
  C:B072H         LINE#         1878
  C:B075H         LINE#         1879
  C:B075H         LINE#         1880
BL51 BANKED LINKER/LOCATER V6.22                                                      05/30/2019  12:42:35  PAGE 141


  C:B084H         LINE#         1881
  C:B08FH         LINE#         1883
  C:B09BH         LINE#         1884
  C:B09BH         LINE#         1885
  C:B0B8H         LINE#         1886
  C:B0BBH         LINE#         1887
  C:B0BBH         LINE#         1888
  C:B0BBH         LINE#         1889
  C:B0C1H         LINE#         1890
  C:B0C1H         LINE#         1891
  C:B0C3H         LINE#         1892
  C:B0C3H         LINE#         1893
  C:B0C3H         LINE#         1894
  C:B0CDH         LINE#         1895
  C:B0CEH         LINE#         1897
  C:B0CEH         LINE#         1898
  C:B0DAH         LINE#         1899
  C:B0DAH         LINE#         1900
  C:B0DAH         LINE#         1901
  C:B0DAH         LINE#         1902
  -------         ENDPROC       RXPACKET
  -------         PROC          SETBLE_TIMEINTERVAL_WINOFFSET
  -------         DO            
  X:0AA7H         SYMBOL        tempEvent
  X:0AA9H         SYMBOL        rtc_calvalue
  -------         ENDDO         
  C:B86EH         LINE#         1907
  C:B86EH         LINE#         1908
  C:B86EH         LINE#         1912
  C:B871H         LINE#         1916
  C:B884H         LINE#         1917
  C:B89AH         LINE#         1919
  C:B8C2H         LINE#         1921
  C:B8CAH         LINE#         1925
  C:B8CFH         LINE#         1926
  C:B8D8H         LINE#         1927
  -------         ENDPROC       SETBLE_TIMEINTERVAL_WINOFFSET
  -------         PROC          TMR_INTERRUPT_ENABLE
  C:CB96H         LINE#         1932
  C:CB96H         LINE#         1933
  C:CB96H         LINE#         1934
  C:CB99H         LINE#         1935
  C:CB9DH         LINE#         1936
  -------         ENDPROC       TMR_INTERRUPT_ENABLE
  -------         PROC          CONNECT_ACK_ENABLE
  C:CB0DH         LINE#         1941
  C:CB0DH         LINE#         1942
  C:CB0DH         LINE#         1943
  C:CB13H         LINE#         1944
  C:CB17H         LINE#         1945
  -------         ENDPROC       CONNECT_ACK_ENABLE
  -------         PROC          DC_SHIFT
  -------         DO            
  D:0004H         SYMBOL        i
  D:0006H         SYMBOL        j
  D:0005H         SYMBOL        k
  D:0007H         SYMBOL        tmp
BL51 BANKED LINKER/LOCATER V6.22                                                      05/30/2019  12:42:35  PAGE 142


  -------         ENDDO         
  C:BE77H         LINE#         1950
  C:BE77H         LINE#         1951
  C:BE77H         LINE#         1952
  C:BE7AH         LINE#         1954
  C:BE7BH         LINE#         1955
  C:BE7BH         LINE#         1956
  C:BE9EH         LINE#         1957
  C:BE9EH         LINE#         1958
  C:BE9FH         LINE#         1959
  C:BEA1H         LINE#         1961
  C:BEA1H         LINE#         1962
  C:BEA2H         LINE#         1963
  C:BEA2H         LINE#         1964
  C:BEA7H         LINE#         1966
  C:BEACH         LINE#         1967
  C:BEACH         LINE#         1968
  C:BEB1H         LINE#         1969
  C:BEB1H         LINE#         1970
  C:BEB1H         LINE#         1971
  C:BEB3H         LINE#         1973
  C:BEB3H         LINE#         1974
  C:BEBAH         LINE#         1975
  C:BEBEH         LINE#         1976
  C:BEC2H         LINE#         1977
  C:BEC2H         LINE#         1979
  C:BEC4H         LINE#         1980
  C:BEC7H         LINE#         1981
  -------         ENDPROC       DC_SHIFT
  -------         PROC          SETBLE_CHANNEL
  -------         DO            
  D:0007H         SYMBOL        i
  D:0003H         SYMBOL        j
  -------         ENDDO         
  C:B0DBH         LINE#         1986
  C:B0DBH         LINE#         1987
  C:B0DBH         LINE#         1990
  C:B0DDH         LINE#         1991
  C:B0FAH         LINE#         1992
  C:B0FCH         LINE#         1994
  C:B117H         LINE#         1995
  C:B117H         LINE#         1996
  C:B126H         LINE#         1998
  C:B140H         LINE#         1999
  C:B140H         LINE#         2000
  C:B158H         LINE#         2001
  C:B158H         LINE#         2002
  C:B159H         LINE#         2003
  C:B159H         LINE#         2004
  C:B15CH         LINE#         2006
  C:B162H         LINE#         2007
  C:B162H         LINE#         2008
  C:B162H         LINE#         2009
  C:B162H         LINE#         2010
  C:B164H         LINE#         2012
  C:B164H         LINE#         2013
  C:B16DH         LINE#         2014
BL51 BANKED LINKER/LOCATER V6.22                                                      05/30/2019  12:42:35  PAGE 143


  C:B172H         LINE#         2015
  C:B17AH         LINE#         2016
  C:B17AH         LINE#         2017
  -------         ENDPROC       SETBLE_CHANNEL
  -------         PROC          TMR_INTERRUPT_DISABLE
  C:CB18H         LINE#         2022
  C:CB18H         LINE#         2023
  C:CB18H         LINE#         2024
  C:CB1EH         LINE#         2025
  C:CB22H         LINE#         2026
  -------         ENDPROC       TMR_INTERRUPT_DISABLE
  C:6279H         SYMBOL        L?1618
  -------         PROC          CONNECTESTABLISH
  -------         DO            
  D:0007H         SYMBOL        tmp
  D:0007H         SYMBOL        i
  D:0006H         SYMBOL        tmptmr
  B:0029H.2       SYMBOL        link_fail
  -------         ENDDO         
  C:5D56H         LINE#         2031
  C:5D56H         LINE#         2032
  C:5D56H         LINE#         2037
  C:5D58H         LINE#         2039
  C:5D5DH         LINE#         2041
  C:5D8CH         LINE#         2042
  C:5D8CH         LINE#         2043
  C:5D8CH         LINE#         2044
  C:5D8FH         LINE#         2045
  C:5D8FH         LINE#         2046
  C:5D92H         LINE#         2047
  C:5D92H         LINE#         2048
  C:5D98H         LINE#         2049
  C:5D98H         LINE#         2051
  C:5D9BH         LINE#         2053
  C:5D9EH         LINE#         2054
  C:5DA1H         LINE#         2057
  C:5DB2H         LINE#         2058
  C:5DB2H         LINE#         2059
  C:5DB2H         LINE#         2060
  C:5DB5H         LINE#         2062
  C:5DBAH         LINE#         2063
  C:5DBAH         LINE#         2066
  C:5DBFH         LINE#         2067
  C:5DCDH         LINE#         2068
  C:5DD4H         LINE#         2069
  C:5DD7H         LINE#         2072
  C:5DDAH         LINE#         2073
  C:5DDAH         LINE#         2074
  C:5DE6H         LINE#         2076
  C:5DEEH         LINE#         2077
  C:5DEEH         LINE#         2078
  C:5DEEH         LINE#         2080
  C:5DEEH         LINE#         2081
  C:5DF1H         LINE#         2082
  C:5DF7H         LINE#         2084
  C:5DFDH         LINE#         2085
  C:5DFDH         LINE#         2086
BL51 BANKED LINKER/LOCATER V6.22                                                      05/30/2019  12:42:35  PAGE 144


  C:5E00H         LINE#         2087
  C:5E05H         LINE#         2088
  C:5E07H         LINE#         2089
  C:5E07H         LINE#         2090
  C:5E07H         LINE#         2091
  C:5E07H         LINE#         2092
  C:5E07H         LINE#         2093
  C:5E0AH         LINE#         2095
  C:5E11H         LINE#         2097
  C:5E11H         LINE#         2098
  C:5E11H         LINE#         2099
  C:5E11H         LINE#         2101
  C:5E11H         LINE#         2102
  C:5E11H         LINE#         2104
  C:5E14H         LINE#         2106
  C:5E1CH         LINE#         2107
  C:5E1CH         LINE#         2135
  C:5E36H         LINE#         2136
  C:5E36H         LINE#         2137
  C:5E3CH         LINE#         2138
  C:5E3CH         LINE#         2139
  C:5E3CH         LINE#         2140
  C:5E3EH         LINE#         2141
  C:5E4DH         LINE#         2142
  C:5E4DH         LINE#         2143
  C:5E4DH         LINE#         2144
  C:5E4FH         LINE#         2145
  C:5E76H         LINE#         2146
  C:5E76H         LINE#         2147
  C:5E87H         LINE#         2148
  C:5E87H         LINE#         2149
  C:5E8AH         LINE#         2150
  C:5E8CH         LINE#         2152
  C:5E8CH         LINE#         2153
  C:5E8FH         LINE#         2154
  C:5E91H         LINE#         2155
  C:5E91H         LINE#         2156
  C:5E93H         LINE#         2158
  C:5E93H         LINE#         2159
  C:5E96H         LINE#         2160
  C:5E98H         LINE#         2161
  C:5E98H         LINE#         2162
  C:5E9AH         LINE#         2164
  C:5E9AH         LINE#         2165
  C:5E9DH         LINE#         2166
  C:5E9FH         LINE#         2167
  C:5E9FH         LINE#         2168
  C:5EA1H         LINE#         2170
  C:5EA1H         LINE#         2171
  C:5EA4H         LINE#         2172
  C:5EAAH         LINE#         2173
  C:5EAAH         LINE#         2174
  C:5ED0H         LINE#         2175
  C:5ED0H         LINE#         2176
  C:5ED0H         LINE#         2178
  C:5ED0H         LINE#         2179
  C:5ED9H         LINE#         2180
BL51 BANKED LINKER/LOCATER V6.22                                                      05/30/2019  12:42:35  PAGE 145


  C:5ED9H         LINE#         2181
  C:5ED9H         LINE#         2182
  C:5EDCH         LINE#         2183
  C:5EDCH         LINE#         2184
  C:5EDCH         LINE#         2185
  C:5EDCH         LINE#         2186
  C:5EDCH         LINE#         2234
  C:5EEBH         LINE#         2236
  C:5EF2H         LINE#         2237
  C:5EF2H         LINE#         2238
  C:5EF4H         LINE#         2239
  C:5EF4H         LINE#         2241
  C:5EF7H         LINE#         2242
  C:5EF7H         LINE#         2243
  C:5EFDH         LINE#         2244
  C:5EFFH         LINE#         2245
  C:5F01H         LINE#         2246
  C:5F06H         LINE#         2247
  C:5F06H         LINE#         2248
  C:5F0BH         LINE#         2249
  C:5F0BH         LINE#         2250
  C:5F0BH         LINE#         2253
  C:5F13H         LINE#         2254
  C:5F13H         LINE#         2255
  C:5F18H         LINE#         2256
  C:5F18H         LINE#         2257
  C:5F1EH         LINE#         2258
  C:5F20H         LINE#         2260
  C:5F20H         LINE#         2261
  C:5F26H         LINE#         2262
  C:5F26H         LINE#         2264
  C:5F29H         LINE#         2265
  C:5F2EH         LINE#         2267
  C:5F31H         LINE#         2268
  C:5F31H         LINE#         2269
  C:5F37H         LINE#         2271
  C:5F3AH         LINE#         2272
  C:5F3AH         LINE#         2273
  C:5F42H         LINE#         2274
  C:5F42H         LINE#         2275
  C:5F4CH         LINE#         2276
  C:5F4CH         LINE#         2277
  C:5F4DH         LINE#         2278
  C:5F4DH         LINE#         2279
  C:5F4DH         LINE#         2280
  C:5F4FH         LINE#         2281
  C:5F54H         LINE#         2282
  C:5F54H         LINE#         2283
  C:5F57H         LINE#         2284
  C:5F57H         LINE#         2285
  C:5F61H         LINE#         2286
  C:5F61H         LINE#         2287
  C:5F62H         LINE#         2288
  C:5F62H         LINE#         2289
  C:5F62H         LINE#         2290
  C:5F64H         LINE#         2292
  C:5F64H         LINE#         2293
BL51 BANKED LINKER/LOCATER V6.22                                                      05/30/2019  12:42:35  PAGE 146


  C:5F6EH         LINE#         2294
  C:5F6EH         LINE#         2295
  C:5F78H         LINE#         2296
  C:5F78H         LINE#         2297
  C:5F78H         LINE#         2298
  C:5F78H         LINE#         2299
  C:5F78H         LINE#         2300
  C:5F7AH         LINE#         2302
  C:5F7AH         LINE#         2303
  C:5F82H         LINE#         2304
  C:5F82H         LINE#         2305
  C:5F87H         LINE#         2306
  C:5F87H         LINE#         2307
  C:5F89H         LINE#         2308
  C:5F8DH         LINE#         2309
  C:5F8DH         LINE#         2310
  C:5F93H         LINE#         2311
  C:5F97H         LINE#         2312
  C:5F97H         LINE#         2313
  C:5F97H         LINE#         2315
  C:5F9DH         LINE#         2316
  C:5F9DH         LINE#         2317
  C:5FA3H         LINE#         2318
  C:5FA7H         LINE#         2319
  C:5FA7H         LINE#         2320
  C:5FAAH         LINE#         2322
  C:5FAAH         LINE#         2323
  C:5FB0H         LINE#         2324
  C:5FB2H         LINE#         2325
  C:5FB9H         LINE#         2326
  C:5FBCH         LINE#         2328
  C:5FC5H         LINE#         2329
  C:5FC5H         LINE#         2330
  C:5FC8H         LINE#         2331
  C:5FCAH         LINE#         2333
  C:5FCAH         LINE#         2334
  C:5FCDH         LINE#         2335
  C:5FCDH         LINE#         2337
  C:5FECH         LINE#         2338
  C:5FECH         LINE#         2339
  C:5FF2H         LINE#         2341
  C:5FF5H         LINE#         2342
  C:5FF5H         LINE#         2343
  C:6003H         LINE#         2345
  C:6005H         LINE#         2346
  C:600BH         LINE#         2347
  C:600BH         LINE#         2348
  C:6012H         LINE#         2349
  C:6014H         LINE#         2350
  C:6017H         LINE#         2351
  C:601BH         LINE#         2352
  C:601BH         LINE#         2353
  C:6020H         LINE#         2354
  C:6023H         LINE#         2355
  C:6028H         LINE#         2356
  C:602AH         LINE#         2357
  C:6030H         LINE#         2358
BL51 BANKED LINKER/LOCATER V6.22                                                      05/30/2019  12:42:35  PAGE 147


  C:6030H         LINE#         2359
  C:6030H         LINE#         2360
  C:6036H         LINE#         2361
  C:6039H         LINE#         2363
  C:603CH         LINE#         2364
  C:6041H         LINE#         2365
  C:6043H         LINE#         2367
  C:6043H         LINE#         2368
  C:6049H         LINE#         2369
  C:604CH         LINE#         2370
  C:604CH         LINE#         2372
  C:6071H         LINE#         2373
  C:6071H         LINE#         2374
  C:6074H         LINE#         2375
  C:6076H         LINE#         2376
  C:6079H         LINE#         2377
  C:6080H         LINE#         2378
  C:6080H         LINE#         2379
  C:6083H         LINE#         2380
  C:6098H         LINE#         2381
  C:6098H         LINE#         2383
  C:609FH         LINE#         2385
  C:60A2H         LINE#         2386
  C:60A6H         LINE#         2387
  C:60A6H         LINE#         2388
  C:60A9H         LINE#         2389
  C:60A9H         LINE#         2390
  C:60ACH         LINE#         2391
  C:60AFH         LINE#         2393
  C:60B2H         LINE#         2394
  C:60B2H         LINE#         2395
  C:60B8H         LINE#         2397
  C:60C1H         LINE#         2398
  C:60C4H         LINE#         2400
  C:60C6H         LINE#         2402
  C:60C9H         LINE#         2403
  C:60C9H         LINE#         2404
  C:60CCH         LINE#         2405
  C:60CCH         LINE#         2406
  C:60CEH         LINE#         2408
  C:60D1H         LINE#         2409
  C:60D1H         LINE#         2410
  C:60D4H         LINE#         2411
  C:60D4H         LINE#         2412
  C:60D7H         LINE#         2413
  C:60D7H         LINE#         2414
  C:60D7H         LINE#         2415
  C:60DAH         LINE#         2417
  C:60E3H         LINE#         2418
  C:60E3H         LINE#         2420
  C:60F0H         LINE#         2421
  C:60F0H         LINE#         2422
  C:60FAH         LINE#         2424
  C:6108H         LINE#         2425
  C:6108H         LINE#         2426
  C:610FH         LINE#         2427
  C:610FH         LINE#         2428
BL51 BANKED LINKER/LOCATER V6.22                                                      05/30/2019  12:42:35  PAGE 148


  C:610FH         LINE#         2429
  C:610FH         LINE#         2430
  C:6111H         LINE#         2432
  C:6111H         LINE#         2433
  C:6122H         LINE#         2434
  C:6122H         LINE#         2435
  C:6128H         LINE#         2436
  C:6128H         LINE#         2437
  C:6128H         LINE#         2439
  C:6130H         LINE#         2440
  C:6130H         LINE#         2441
  C:615FH         LINE#         2442
  C:6165H         LINE#         2443
  C:616AH         LINE#         2444
  C:6170H         LINE#         2445
  C:6170H         LINE#         2447
  C:6176H         LINE#         2448
  C:617AH         LINE#         2449
  C:617AH         LINE#         2451
  C:617AH         LINE#         2452
  C:617AH         LINE#         2454
  C:617CH         LINE#         2456
  C:617FH         LINE#         2457
  C:617FH         LINE#         2458
  C:6181H         LINE#         2459
  C:6184H         LINE#         2460
  C:6184H         LINE#         2475
  C:6198H         LINE#         2476
  C:6198H         LINE#         2477
  C:619DH         LINE#         2478
  C:619DH         LINE#         2479
  C:619FH         LINE#         2480
  C:61A8H         LINE#         2481
  C:61A8H         LINE#         2482
  C:61ADH         LINE#         2483
  C:61ADH         LINE#         2484
  C:61AFH         LINE#         2485
  C:61B3H         LINE#         2486
  C:61B3H         LINE#         2487
  C:61B9H         LINE#         2488
  C:61BDH         LINE#         2489
  C:61BDH         LINE#         2493
  C:61C4H         LINE#         2494
  C:61C4H         LINE#         2495
  C:61C6H         LINE#         2496
  C:61C8H         LINE#         2497
  C:61CEH         LINE#         2498
  C:61CEH         LINE#         2500
  C:6209H         LINE#         2501
  C:6209H         LINE#         2502
  C:620BH         LINE#         2503
  C:620CH         LINE#         2504
  C:6211H         LINE#         2505
  C:6213H         LINE#         2506
  C:6219H         LINE#         2507
  C:6219H         LINE#         2509
  C:622BH         LINE#         2510
BL51 BANKED LINKER/LOCATER V6.22                                                      05/30/2019  12:42:35  PAGE 149


  C:622BH         LINE#         2511
  C:622DH         LINE#         2512
  C:622FH         LINE#         2513
  C:6235H         LINE#         2514
  C:623BH         LINE#         2515
  C:623BH         LINE#         2517
  C:6241H         LINE#         2518
  C:6241H         LINE#         2519
  C:6243H         LINE#         2520
  C:6245H         LINE#         2521
  C:624BH         LINE#         2522
  C:624BH         LINE#         2524
  C:6262H         LINE#         2525
  C:6262H         LINE#         2526
  C:6264H         LINE#         2527
  C:6264H         LINE#         2528
  C:6267H         LINE#         2529
  C:626DH         LINE#         2530
  C:626DH         LINE#         2532
  C:6270H         LINE#         2533
  C:6270H         LINE#         2534
  C:6275H         LINE#         2535
  C:6275H         LINE#         2536
  C:6275H         LINE#         2537
  C:6275H         LINE#         2538
  C:6275H         LINE#         2539
  C:6278H         LINE#         2540
  C:6278H         LINE#         2541
  -------         ENDPROC       CONNECTESTABLISH
  -------         PROC          _SETBLE_CHECK_SN_NESN
  D:0007H         SYMBOL        tmpSN
  D:0005H         SYMBOL        tmpNESN
  C:C6DAH         LINE#         2546
  C:C6DAH         LINE#         2547
  C:C6DAH         LINE#         2548
  C:C6E0H         LINE#         2549
  C:C6E0H         LINE#         2550
  C:C6E7H         LINE#         2551
  C:C6EBH         LINE#         2553
  C:C6EDH         LINE#         2555
  C:C6F4H         LINE#         2556
  C:C6F7H         LINE#         2558
  C:C6F9H         LINE#         2559
  C:C6FAH         LINE#         2561
  C:C6FCH         LINE#         2562
  -------         ENDPROC       _SETBLE_CHECK_SN_NESN
  -------         PROC          CONNECT_ACK_DISABLE
  C:CB23H         LINE#         2567
  C:CB23H         LINE#         2568
  C:CB23H         LINE#         2569
  C:CB29H         LINE#         2570
  C:CB2DH         LINE#         2571
  -------         ENDPROC       CONNECT_ACK_DISABLE
  -------         PROC          SETBLE_TIMEINTERVAL_CONNECT
  -------         DO            
  X:09E5H         SYMBOL        i
  D:0007H         SYMBOL        k
BL51 BANKED LINKER/LOCATER V6.22                                                      05/30/2019  12:42:35  PAGE 150


  X:09E6H         SYMBOL        tempEvent
  X:09E8H         SYMBOL        tempWinOffset
  D:0004H         SYMBOL        tmpTimeout
  X:09EAH         SYMBOL        tmpInterval
  X:09ECH         SYMBOL        tmpLatency
  X:09EEH         SYMBOL        rtc_calvalue
  D:0006H         SYMBOL        writePtr
  X:09F2H         SYMBOL        writePtr2
  -------         ENDDO         
  C:8687H         LINE#         2576
  C:8687H         LINE#         2577
  C:8687H         LINE#         2584
  C:868AH         LINE#         2586
  C:869DH         LINE#         2587
  C:869DH         LINE#         2588
  C:86ACH         LINE#         2589
  C:86BBH         LINE#         2590
  C:86CAH         LINE#         2591
  C:86FEH         LINE#         2594
  C:870BH         LINE#         2596
  C:870FH         LINE#         2597
  C:871BH         LINE#         2599
  C:872AH         LINE#         2600
  C:8740H         LINE#         2602
  C:874CH         LINE#         2603
  C:8753H         LINE#         2604
  C:8753H         LINE#         2606
  C:8766H         LINE#         2608
  C:8776H         LINE#         2609
  C:879DH         LINE#         2611
  C:87A0H         LINE#         2612
  C:87B2H         LINE#         2613
  C:87B2H         LINE#         2614
  C:87B4H         LINE#         2616
  C:87B7H         LINE#         2618
  C:87BFH         LINE#         2619
  C:87BFH         LINE#         2620
  C:87BFH         LINE#         2621
  C:87C2H         LINE#         2622
  C:87C2H         LINE#         2625
  C:87C2H         LINE#         2627
  C:87C2H         LINE#         2628
  C:87D4H         LINE#         2630
  C:87D6H         LINE#         2632
  C:87D6H         LINE#         2634
  C:87D6H         LINE#         2636
  C:87D6H         LINE#         2637
  C:87EFH         LINE#         2639
  C:87EFH         LINE#         2641
  C:87FFH         LINE#         2642
  C:8803H         LINE#         2644
  C:8805H         LINE#         2646
  C:8812H         LINE#         2647
  C:8815H         LINE#         2649
  C:881DH         LINE#         2651
  C:882AH         LINE#         2652
  C:882AH         LINE#         2653
BL51 BANKED LINKER/LOCATER V6.22                                                      05/30/2019  12:42:35  PAGE 151


  C:882CH         LINE#         2655
  C:882FH         LINE#         2657
  C:8837H         LINE#         2658
  C:8837H         LINE#         2659
  C:8837H         LINE#         2660
  C:883AH         LINE#         2661
  C:883AH         LINE#         2663
  C:883FH         LINE#         2664
  C:883FH         LINE#         2665
  C:8857H         LINE#         2666
  C:885EH         LINE#         2668
  C:8860H         LINE#         2670
  C:8864H         LINE#         2671
  C:8864H         LINE#         2672
  C:8880H         LINE#         2673
  C:8880H         LINE#         2674
  C:8881H         LINE#         2675
  C:8881H         LINE#         2676
  C:8888H         LINE#         2677
  C:888DH         LINE#         2678
  C:888DH         LINE#         2679
  -------         ENDPROC       SETBLE_TIMEINTERVAL_CONNECT
  -------         PROC          _SETBLE_SN_NESN
  D:0007H         SYMBOL        tmpSN
  D:0005H         SYMBOL        tmpNESN
  C:C09BH         LINE#         2684
  C:C09BH         LINE#         2685
  C:C09BH         LINE#         2686
  C:C0A1H         LINE#         2687
  C:C0A1H         LINE#         2688
  C:C0A9H         LINE#         2689
  C:C0A9H         LINE#         2690
  C:C0ABH         LINE#         2691
  C:C0B0H         LINE#         2692
  C:C0B2H         LINE#         2694
  C:C0B2H         LINE#         2695
  C:C0B4H         LINE#         2696
  C:C0B9H         LINE#         2697
  C:C0B9H         LINE#         2699
  C:C0C1H         LINE#         2700
  C:C0C1H         LINE#         2701
  C:C0C3H         LINE#         2702
  C:C0C5H         LINE#         2704
  C:C0C5H         LINE#         2705
  C:C0CDH         LINE#         2706
  C:C0CFH         LINE#         2707
  C:C0CFH         LINE#         2710
  C:C0CFH         LINE#         2711
  C:C0CFH         LINE#         2712
  C:C0CFH         LINE#         2714
  C:C0CFH         LINE#         2715
  C:C0D1H         LINE#         2717
  C:C0D1H         LINE#         2718
  C:C0D3H         LINE#         2719
  C:C0DBH         LINE#         2720
  C:C0E3H         LINE#         2721
  C:C0E3H         LINE#         2722
BL51 BANKED LINKER/LOCATER V6.22                                                      05/30/2019  12:42:35  PAGE 152


  -------         ENDPROC       _SETBLE_SN_NESN
  -------         PROC          ACKDATA_PROCESS
  -------         DO            
  D:0007H         SYMBOL        i
  -------         ENDDO         
  C:888EH         LINE#         2727
  C:888EH         LINE#         2728
  C:888EH         LINE#         2731
  C:8891H         LINE#         2732
  C:8891H         LINE#         2733
  C:8894H         LINE#         2734
  C:8894H         LINE#         2735
  C:8898H         LINE#         2736
  C:8899H         LINE#         2738
  C:8899H         LINE#         2739
  C:889FH         LINE#         2740
  C:889FH         LINE#         2741
  C:88A5H         LINE#         2742
  C:88A5H         LINE#         2743
  C:88AEH         LINE#         2744
  C:88B6H         LINE#         2745
  C:88D2H         LINE#         2746
  C:88D2H         LINE#         2748
  C:88E1H         LINE#         2749
  C:88E1H         LINE#         2750
  C:88E7H         LINE#         2751
  C:88ECH         LINE#         2752
  C:88ECH         LINE#         2753
  C:88EFH         LINE#         2754
  C:88F9H         LINE#         2755
  C:88F9H         LINE#         2756
  C:88FCH         LINE#         2757
  C:88FCH         LINE#         2758
  C:8900H         LINE#         2759
  C:890CH         LINE#         2760
  C:8917H         LINE#         2761
  C:891EH         LINE#         2762
  C:892BH         LINE#         2763
  C:892BH         LINE#         2764
  C:8932H         LINE#         2765
  C:8932H         LINE#         2766
  C:8938H         LINE#         2767
  C:893EH         LINE#         2768
  C:8942H         LINE#         2769
  C:8944H         LINE#         2771
  C:8944H         LINE#         2772
  C:8947H         LINE#         2773
  C:8954H         LINE#         2774
  C:895FH         LINE#         2775
  C:8966H         LINE#         2776
  C:8973H         LINE#         2777
  C:8973H         LINE#         2779
  C:8975H         LINE#         2780
  C:8977H         LINE#         2781
  C:8978H         LINE#         2783
  C:8978H         LINE#         2784
  C:897BH         LINE#         2785
BL51 BANKED LINKER/LOCATER V6.22                                                      05/30/2019  12:42:35  PAGE 153


  C:897BH         LINE#         2786
  C:897FH         LINE#         2787
  C:8981H         LINE#         2788
  C:8983H         LINE#         2789
  C:8983H         LINE#         2790
  C:8984H         LINE#         2792
  C:8984H         LINE#         2793
  C:898AH         LINE#         2794
  C:898AH         LINE#         2795
  C:898DH         LINE#         2797
  C:898DH         LINE#         2798
  C:8990H         LINE#         2800
  C:899FH         LINE#         2801
  C:899FH         LINE#         2802
  C:899FH         LINE#         2803
  C:899FH         LINE#         2804
  C:89A2H         LINE#         2805
  C:89ABH         LINE#         2806
  C:89ABH         LINE#         2807
  C:89B0H         LINE#         2808
  C:89B0H         LINE#         2809
  C:89B3H         LINE#         2810
  C:89B7H         LINE#         2811
  C:89B7H         LINE#         2812
  C:89BCH         LINE#         2813
  C:89BCH         LINE#         2814
  C:89BFH         LINE#         2816
  C:89C0H         LINE#         2817
  C:89C1H         LINE#         2818
  C:89C7H         LINE#         2819
  C:89C7H         LINE#         2820
  C:89CAH         LINE#         2822
  C:89CAH         LINE#         2824
  C:89D9H         LINE#         2825
  C:89D9H         LINE#         2826
  C:89DCH         LINE#         2827
  C:89DEH         LINE#         2828
  C:89E4H         LINE#         2829
  C:89E5H         LINE#         2830
  C:89EFH         LINE#         2831
  C:89EFH         LINE#         2832
  C:89EFH         LINE#         2833
  C:89EFH         LINE#         2834
  C:89F3H         LINE#         2835
  C:89FDH         LINE#         2836
  C:8A08H         LINE#         2837
  C:8A08H         LINE#         2838
  C:8A0FH         LINE#         2839
  C:8A0FH         LINE#         2840
  C:8A12H         LINE#         2841
  C:8A14H         LINE#         2842
  C:8A1AH         LINE#         2843
  C:8A1BH         LINE#         2845
  C:8A1BH         LINE#         2846
  C:8A1BH         LINE#         2847
  C:8A23H         LINE#         2848
  C:8A2EH         LINE#         2849
BL51 BANKED LINKER/LOCATER V6.22                                                      05/30/2019  12:42:35  PAGE 154


  C:8A2EH         LINE#         2850
  C:8A2EH         LINE#         2852
  C:8A2EH         LINE#         2853
  C:8A31H         LINE#         2854
  C:8A31H         LINE#         2856
  C:8A40H         LINE#         2857
  C:8A40H         LINE#         2858
  C:8A43H         LINE#         2859
  C:8A48H         LINE#         2860
  C:8A48H         LINE#         2861
  C:8A4AH         LINE#         2862
  C:8A54H         LINE#         2863
  C:8A54H         LINE#         2864
  C:8A54H         LINE#         2865
  C:8A54H         LINE#         2866
  C:8A58H         LINE#         2867
  C:8A5FH         LINE#         2868
  C:8A6AH         LINE#         2869
  C:8A6AH         LINE#         2870
  C:8A71H         LINE#         2871
  C:8A71H         LINE#         2872
  C:8A74H         LINE#         2873
  C:8A7AH         LINE#         2874
  C:8A7EH         LINE#         2875
  C:8A7FH         LINE#         2877
  C:8A7FH         LINE#         2878
  C:8A7FH         LINE#         2879
  C:8A87H         LINE#         2880
  C:8A92H         LINE#         2881
  C:8A92H         LINE#         2882
  C:8A92H         LINE#         2883
  C:8A92H         LINE#         2884
  C:8A92H         LINE#         2885
  -------         ENDPROC       ACKDATA_PROCESS
  -------         PROC          _A8107_RX_PKT_NUM
  D:0007H         SYMBOL        pktnum
  C:C2A2H         LINE#         2890
  C:C2A2H         LINE#         2891
  C:C2A2H         LINE#         2892
  C:C2A7H         LINE#         2893
  C:C2A7H         LINE#         2894
  C:C2B3H         LINE#         2895
  C:C2BEH         LINE#         2896
  C:C2C9H         LINE#         2897
  C:C2D4H         LINE#         2898
  C:C2DCH         LINE#         2899
  C:C2DCH         LINE#         2900
  -------         ENDPROC       _A8107_RX_PKT_NUM
  -------         PROC          MD_PROCEDURE
  -------         DO            
  D:0007H         SYMBOL        j
  D:0006H         SYMBOL        tmpInterval
  B:0029H.3       SYMBOL        rxpacket_not_end
  X:0B57H         SYMBOL        i
  -------         ENDDO         
  C:9698H         LINE#         2905
  C:9698H         LINE#         2906
BL51 BANKED LINKER/LOCATER V6.22                                                      05/30/2019  12:42:35  PAGE 155


  C:9698H         LINE#         2912
  C:969AH         LINE#         2914
  C:96A1H         LINE#         2915
  C:96BCH         LINE#         2917
  C:96C5H         LINE#         2918
  C:96C8H         LINE#         2920
  C:96CAH         LINE#         2922
  C:96CDH         LINE#         2924
  C:96D3H         LINE#         2925
  C:96D3H         LINE#         2926
  C:96DAH         LINE#         2927
  C:96DAH         LINE#         2928
  C:96DDH         LINE#         2929
  C:96DDH         LINE#         2930
  C:96ECH         LINE#         2931
  C:96F7H         LINE#         2933
  C:96FDH         LINE#         2934
  C:96FDH         LINE#         2935
  C:9707H         LINE#         2936
  C:9707H         LINE#         2937
  C:9711H         LINE#         2938
  C:9716H         LINE#         2940
  C:9716H         LINE#         2941
  C:9716H         LINE#         2942
  C:971DH         LINE#         2943
  C:971DH         LINE#         2944
  C:971EH         LINE#         2945
  C:971EH         LINE#         2946
  C:9720H         LINE#         2948
  C:9720H         LINE#         2949
  C:9722H         LINE#         2951
  C:9727H         LINE#         2952
  C:9727H         LINE#         2953
  C:9734H         LINE#         2954
  C:973BH         LINE#         2955
  C:973BH         LINE#         2956
  C:973BH         LINE#         2957
  C:973BH         LINE#         2958
  C:973BH         LINE#         2960
  C:9742H         LINE#         2962
  C:9748H         LINE#         2963
  C:974DH         LINE#         2964
  C:9750H         LINE#         2965
  C:975EH         LINE#         2966
  C:9765H         LINE#         2967
  C:9768H         LINE#         2969
  C:976BH         LINE#         2970
  C:976BH         LINE#         2971
  C:9776H         LINE#         2972
  C:9776H         LINE#         2973
  C:9780H         LINE#         2974
  C:9785H         LINE#         2975
  C:9785H         LINE#         2976
  C:9785H         LINE#         2977
  C:978BH         LINE#         2978
  C:978BH         LINE#         2979
  C:978DH         LINE#         2980
BL51 BANKED LINKER/LOCATER V6.22                                                      05/30/2019  12:42:35  PAGE 156


  C:978DH         LINE#         2981
  C:978DH         LINE#         2983
  C:9799H         LINE#         2985
  C:979CH         LINE#         2986
  C:97A2H         LINE#         2988
  C:97A7H         LINE#         2989
  C:97A7H         LINE#         2990
  C:97A7H         LINE#         2991
  C:97A7H         LINE#         2992
  C:97AAH         LINE#         2993
  C:97ADH         LINE#         2994
  C:97B2H         LINE#         2995
  C:97B4H         LINE#         2996
  C:97B5H         LINE#         2998
  C:97B5H         LINE#         2999
  C:97BBH         LINE#         3000
  C:97BEH         LINE#         3002
  C:97C7H         LINE#         3003
  C:97CAH         LINE#         3005
  C:97CDH         LINE#         3007
  C:97E8H         LINE#         3008
  C:97E8H         LINE#         3009
  C:97E8H         LINE#         3010
  C:97E8H         LINE#         3011
  C:97EBH         LINE#         3012
  C:97EDH         LINE#         3013
  C:97F0H         LINE#         3014
  C:97F5H         LINE#         3015
  C:97F8H         LINE#         3016
  C:97FAH         LINE#         3018
  C:97FAH         LINE#         3019
  C:9803H         LINE#         3020
  C:9803H         LINE#         3021
  C:9803H         LINE#         3022
  C:9803H         LINE#         3023
  C:9806H         LINE#         3024
  C:9806H         LINE#         3055
  C:980CH         LINE#         3056
  C:980FH         LINE#         3058
  C:980FH         LINE#         3059
  C:9812H         LINE#         3060
  C:9812H         LINE#         3061
  -------         ENDPROC       MD_PROCEDURE
  -------         PROC          SETBLE_CONNDISSLV
  C:CB2EH         LINE#         3066
  C:CB2EH         LINE#         3067
  C:CB2EH         LINE#         3068
  C:CB30H         LINE#         3069
  C:CB32H         LINE#         3071
  C:CB38H         LINE#         3072
  -------         ENDPROC       SETBLE_CONNDISSLV
  -------         PROC          _SETBLE_CONNTXDATA
  X:0AADH         SYMBOL        ScanRspData
  X:0AB0H         SYMBOL        tmpLength
  -------         DO            
  X:0AB1H         SYMBOL        i
  X:0AB2H         SYMBOL        tmp
BL51 BANKED LINKER/LOCATER V6.22                                                      05/30/2019  12:42:35  PAGE 157


  -------         ENDDO         
  C:035EH         LINE#         3077
  C:0369H         LINE#         3078
  C:0369H         LINE#         3082
  C:036CH         LINE#         3083
  C:036CH         LINE#         3084
  C:0373H         LINE#         3085
  C:0373H         LINE#         3086
  C:0376H         LINE#         3087
  C:0376H         LINE#         3089
  C:0376H         LINE#         3090
  C:0376H         LINE#         3091
  C:0376H         LINE#         3092
  C:0379H         LINE#         3094
  C:0383H         LINE#         3095
  C:0383H         LINE#         3096
  C:0383H         LINE#         3097
  C:0388H         LINE#         3098
  C:0390H         LINE#         3100
  C:0395H         LINE#         3101
  C:0395H         LINE#         3102
  C:0395H         LINE#         3103
  C:0395H         LINE#         3104
  C:0395H         LINE#         3105
  C:039BH         LINE#         3106
  C:039BH         LINE#         3107
  C:03A2H         LINE#         3108
  C:03A5H         LINE#         3109
  C:03A8H         LINE#         3111
  C:03ADH         LINE#         3112
  C:03ADH         LINE#         3114
  C:03AFH         LINE#         3115
  C:03B1H         LINE#         3116
  C:03B2H         LINE#         3118
  C:03B2H         LINE#         3119
  C:03B5H         LINE#         3120
  C:03B5H         LINE#         3121
  C:03B6H         LINE#         3122
  C:03B7H         LINE#         3124
  C:03B7H         LINE#         3125
  C:03B9H         LINE#         3127
  C:03C0H         LINE#         3128
  C:03C0H         LINE#         3129
  C:03C0H         LINE#         3130
  C:03C3H         LINE#         3131
  C:03C6H         LINE#         3132
  C:03C6H         LINE#         3134
  C:03C6H         LINE#         3135
  C:03C6H         LINE#         3137
  C:03C6H         LINE#         3138
  C:03C9H         LINE#         3140
  C:03D3H         LINE#         3141
  C:03D3H         LINE#         3142
  C:03D3H         LINE#         3143
  C:03D8H         LINE#         3144
  C:03E0H         LINE#         3146
  C:03E5H         LINE#         3147
BL51 BANKED LINKER/LOCATER V6.22                                                      05/30/2019  12:42:35  PAGE 158


  C:03E5H         LINE#         3148
  C:03E5H         LINE#         3149
  C:03E5H         LINE#         3150
  C:03E5H         LINE#         3151
  C:03EBH         LINE#         3152
  C:03EBH         LINE#         3153
  C:03F2H         LINE#         3154
  C:03F5H         LINE#         3155
  C:03F8H         LINE#         3157
  C:03FDH         LINE#         3158
  C:03FDH         LINE#         3160
  C:03FFH         LINE#         3161
  C:03FFH         LINE#         3162
  C:03FFH         LINE#         3163
  -------         ENDPROC       _SETBLE_CONNTXDATA
  -------         PROC          _A8107_TX_PKT_NUM
  D:0007H         SYMBOL        pktnum
  C:C2DDH         LINE#         3168
  C:C2DDH         LINE#         3169
  C:C2DDH         LINE#         3170
  C:C2E2H         LINE#         3171
  C:C2E2H         LINE#         3172
  C:C2EEH         LINE#         3173
  C:C2F9H         LINE#         3174
  C:C304H         LINE#         3175
  C:C30FH         LINE#         3176
  C:C317H         LINE#         3177
  C:C317H         LINE#         3178
  -------         ENDPROC       _A8107_TX_PKT_NUM
  -------         PROC          SETBLE_LLTERMINATE
  C:C6B5H         LINE#         3183
  C:C6B5H         LINE#         3184
  C:C6B5H         LINE#         3185
  C:C6BBH         LINE#         3186
  C:C6BDH         LINE#         3188
  C:C6C5H         LINE#         3190
  C:C6C7H         LINE#         3191
  C:C6D9H         LINE#         3192
  -------         ENDPROC       SETBLE_LLTERMINATE
  -------         PROC          RXDATA_PROCESS
  -------         DO            
  X:0B15H         SYMBOL        i
  X:0B16H         SYMBOL        tempLength
  D:0007H         SYMBOL        tmprxLLID
  X:0B17H         SYMBOL        temp
  -------         ENDDO         
  C:AEE4H         LINE#         3197
  C:AEE4H         LINE#         3198
  C:AEE4H         LINE#         3201
  C:AEF1H         LINE#         3202
  C:AEFAH         LINE#         3204
  C:AF00H         LINE#         3206
  C:AF12H         LINE#         3207
  C:AF12H         LINE#         3208
  C:AF20H         LINE#         3209
  C:AF28H         LINE#         3211
  C:AF2FH         LINE#         3212
BL51 BANKED LINKER/LOCATER V6.22                                                      05/30/2019  12:42:35  PAGE 159


  C:AF2FH         LINE#         3213
  C:AF36H         LINE#         3214
  C:AF36H         LINE#         3216
  C:AF3DH         LINE#         3218
  C:AF44H         LINE#         3219
  C:AF44H         LINE#         3220
  C:AF44H         LINE#         3221
  C:AF4AH         LINE#         3222
  C:AF4AH         LINE#         3223
  C:AF52H         LINE#         3224
  C:AF57H         LINE#         3225
  C:AF57H         LINE#         3227
  C:AF5CH         LINE#         3228
  C:AF5CH         LINE#         3229
  C:AF5CH         LINE#         3230
  C:AF5CH         LINE#         3232
  C:AF5CH         LINE#         3233
  C:AF62H         LINE#         3234
  C:AF62H         LINE#         3235
  C:AF6AH         LINE#         3236
  C:AF6FH         LINE#         3237
  C:AF6FH         LINE#         3238
  C:AF75H         LINE#         3239
  C:AF7DH         LINE#         3241
  C:AF88H         LINE#         3242
  C:AF88H         LINE#         3244
  C:AF88H         LINE#         3246
  C:AF90H         LINE#         3247
  C:AF90H         LINE#         3248
  C:AF90H         LINE#         3249
  C:AF90H         LINE#         3251
  C:AF90H         LINE#         3252
  C:AF90H         LINE#         3254
  C:AF90H         LINE#         3255
  C:AF90H         LINE#         3256
  C:AF90H         LINE#         3257
  -------         ENDPROC       RXDATA_PROCESS
  -------         PROC          _SETBLE_CONNTXCTRL
  X:0AB3H         SYMBOL        ScanRspData
  X:0AB6H         SYMBOL        tmpLength
  -------         DO            
  X:0AB7H         SYMBOL        i
  X:0AB8H         SYMBOL        tmp
  -------         ENDDO         
  C:A8EEH         LINE#         3262
  C:A8F9H         LINE#         3263
  C:A8F9H         LINE#         3267
  C:A8FCH         LINE#         3268
  C:A8FCH         LINE#         3269
  C:A903H         LINE#         3270
  C:A903H         LINE#         3271
  C:A906H         LINE#         3272
  C:A906H         LINE#         3274
  C:A906H         LINE#         3275
  C:A909H         LINE#         3277
  C:A909H         LINE#         3278
  C:A90CH         LINE#         3280
BL51 BANKED LINKER/LOCATER V6.22                                                      05/30/2019  12:42:35  PAGE 160


  C:A919H         LINE#         3281
  C:A919H         LINE#         3282
  C:A921H         LINE#         3283
  C:A929H         LINE#         3284
  C:A931H         LINE#         3286
  C:A936H         LINE#         3287
  C:A936H         LINE#         3288
  C:A936H         LINE#         3289
  C:A936H         LINE#         3290
  C:A936H         LINE#         3291
  C:A93CH         LINE#         3292
  C:A93CH         LINE#         3293
  C:A943H         LINE#         3294
  C:A946H         LINE#         3295
  C:A949H         LINE#         3297
  C:A94EH         LINE#         3298
  C:A94EH         LINE#         3300
  C:A950H         LINE#         3301
  C:A952H         LINE#         3302
  C:A955H         LINE#         3304
  C:A955H         LINE#         3305
  C:A958H         LINE#         3306
  C:A958H         LINE#         3307
  C:A959H         LINE#         3308
  C:A95CH         LINE#         3310
  C:A95CH         LINE#         3311
  C:A95EH         LINE#         3313
  C:A965H         LINE#         3314
  C:A965H         LINE#         3315
  C:A965H         LINE#         3316
  C:A968H         LINE#         3317
  C:A96BH         LINE#         3318
  C:A96BH         LINE#         3320
  C:A96BH         LINE#         3321
  C:A96EH         LINE#         3322
  C:A96EH         LINE#         3323
  C:A971H         LINE#         3325
  C:A97EH         LINE#         3326
  C:A97EH         LINE#         3327
  C:A986H         LINE#         3328
  C:A98EH         LINE#         3329
  C:A996H         LINE#         3331
  C:A99BH         LINE#         3332
  C:A99BH         LINE#         3333
  C:A99BH         LINE#         3334
  C:A99BH         LINE#         3335
  C:A99BH         LINE#         3336
  C:A9A1H         LINE#         3337
  C:A9A1H         LINE#         3338
  C:A9A8H         LINE#         3339
  C:A9ABH         LINE#         3340
  C:A9AEH         LINE#         3342
  C:A9B3H         LINE#         3343
  C:A9B3H         LINE#         3345
  C:A9B5H         LINE#         3346
  C:A9B5H         LINE#         3347
  C:A9B5H         LINE#         3348
BL51 BANKED LINKER/LOCATER V6.22                                                      05/30/2019  12:42:35  PAGE 161


  C:A9B7H         LINE#         3349
  -------         ENDPROC       _SETBLE_CONNTXCTRL
  -------         PROC          PRCSS_LL_CONNECTION_UPDATE_REQ
  -------         DO            
  X:0B19H         SYMBOL        i
  D:0006H         SYMBOL        writePtr
  X:0B1AH         SYMBOL        writePtr2
  -------         ENDDO         
  C:B459H         LINE#         3354
  C:B459H         LINE#         3355
  C:B459H         LINE#         3359
  C:B45DH         LINE#         3360
  C:B469H         LINE#         3362
  C:B478H         LINE#         3363
  C:B48CH         LINE#         3365
  C:B490H         LINE#         3367
  C:B49FH         LINE#         3368
  C:B4BCH         LINE#         3385
  C:B4CFH         LINE#         3387
  C:B4D1H         LINE#         3401
  C:B4DEH         LINE#         3402
  C:B4DEH         LINE#         3403
  C:B4E0H         LINE#         3404
  C:B4E1H         LINE#         3406
  C:B4E1H         LINE#         3407
  C:B4E4H         LINE#         3408
  C:B4E4H         LINE#         3409
  -------         ENDPROC       PRCSS_LL_CONNECTION_UPDATE_REQ
  -------         PROC          PRCSS_LL_CHANNEL_MAP_REQ
  -------         DO            
  D:0005H         SYMBOL        i
  -------         ENDDO         
  C:B940H         LINE#         3414
  C:B940H         LINE#         3415
  C:B940H         LINE#         3418
  C:B942H         LINE#         3419
  C:B95FH         LINE#         3421
  C:B961H         LINE#         3422
  C:B961H         LINE#         3423
  C:B979H         LINE#         3424
  C:B988H         LINE#         3425
  C:B98DH         LINE#         3427
  C:B98FH         LINE#         3429
  C:B99FH         LINE#         3430
  C:B99FH         LINE#         3431
  C:B9A1H         LINE#         3432
  C:B9A2H         LINE#         3434
  C:B9A2H         LINE#         3435
  C:B9A5H         LINE#         3436
  C:B9A5H         LINE#         3437
  -------         ENDPROC       PRCSS_LL_CHANNEL_MAP_REQ
  -------         PROC          PRCSS_LL_TERMINATE_IND
  C:031EH         LINE#         3442
  C:031EH         LINE#         3443
  C:031EH         LINE#         3444
  -------         ENDPROC       PRCSS_LL_TERMINATE_IND
  C:1E7FH         SYMBOL        L?1398
BL51 BANKED LINKER/LOCATER V6.22                                                      05/30/2019  12:42:35  PAGE 162


  C:1E94H         SYMBOL        L?1449
  -------         PROC          PRCSS_LL_ENC_REQ
  -------         DO            
  X:0909H         SYMBOL        i
  X:090AH         SYMBOL        tmp
  X:090BH         SYMBOL        k
  X:090EH         SYMBOL        temp
  X:091EH         SYMBOL        aes_result
  -------         ENDDO         
  C:1918H         LINE#         3450
  C:1918H         LINE#         3451
  C:1918H         LINE#         3456
  C:191DH         LINE#         3457
  C:191DH         LINE#         3458
  C:1933H         LINE#         3459
  C:193AH         LINE#         3460
  C:193FH         LINE#         3461
  C:193FH         LINE#         3462
  C:1952H         LINE#         3463
  C:1959H         LINE#         3464
  C:195EH         LINE#         3465
  C:195EH         LINE#         3466
  C:1971H         LINE#         3467
  C:1978H         LINE#         3468
  C:197DH         LINE#         3469
  C:197DH         LINE#         3470
  C:1990H         LINE#         3471
  C:1997H         LINE#         3473
  C:19A4H         LINE#         3474
  C:19A4H         LINE#         3475
  C:19ACH         LINE#         3476
  C:19ACH         LINE#         3477
  C:19ACH         LINE#         3478
  C:19ACH         LINE#         3479
  C:19B1H         LINE#         3480
  C:19B9H         LINE#         3481
  C:19B9H         LINE#         3482
  C:19B9H         LINE#         3483
  C:19C1H         LINE#         3484
  C:19C1H         LINE#         3485
  C:19C1H         LINE#         3486
  C:19C9H         LINE#         3487
  C:19C9H         LINE#         3488
  C:19D4H         LINE#         3489
  C:19D4H         LINE#         3490
  C:19D9H         LINE#         3491
  C:19E1H         LINE#         3492
  C:19E1H         LINE#         3493
  C:19E3H         LINE#         3494
  C:19ECH         LINE#         3495
  C:19ECH         LINE#         3496
  C:19F7H         LINE#         3497
  C:19FAH         LINE#         3498
  C:19FCH         LINE#         3499
  C:19FCH         LINE#         3500
  C:19FCH         LINE#         3501
  C:19FCH         LINE#         3502
BL51 BANKED LINKER/LOCATER V6.22                                                      05/30/2019  12:42:35  PAGE 163


  C:19FCH         LINE#         3504
  C:19FCH         LINE#         3505
  C:19FEH         LINE#         3507
  C:19FEH         LINE#         3508
  C:1A04H         LINE#         3509
  C:1A04H         LINE#         3510
  C:1A06H         LINE#         3511
  C:1A06H         LINE#         3513
  C:1A0FH         LINE#         3514
  C:1A0FH         LINE#         3515
  C:1A11H         LINE#         3516
  C:1A1CH         LINE#         3517
  C:1A21H         LINE#         3518
  C:1A21H         LINE#         3519
  C:1A21H         LINE#         3520
  C:1A26H         LINE#         3521
  C:1A26H         LINE#         3522
  C:1A2AH         LINE#         3523
  C:1A2AH         LINE#         3524
  C:1A3BH         LINE#         3525
  C:1A42H         LINE#         3526
  C:1A47H         LINE#         3527
  C:1A47H         LINE#         3528
  C:1A58H         LINE#         3529
  C:1A5FH         LINE#         3530
  C:1A5FH         LINE#         3531
  C:1A5FH         LINE#         3532
  C:1A5FH         LINE#         3533
  C:1A5FH         LINE#         3535
  C:1A61H         LINE#         3537
  C:1A67H         LINE#         3538
  C:1A67H         LINE#         3539
  C:1A72H         LINE#         3540
  C:1A72H         LINE#         3541
  C:1A7FH         LINE#         3542
  C:1A7FH         LINE#         3543
  C:1A84H         LINE#         3544
  C:1A8FH         LINE#         3545
  C:1A8FH         LINE#         3546
  C:1A8FH         LINE#         3547
  C:1A92H         LINE#         3549
  C:1A92H         LINE#         3550
  C:1A95H         LINE#         3551
  C:1A95H         LINE#         3552
  C:1A98H         LINE#         3554
  C:1A98H         LINE#         3555
  C:1A9DH         LINE#         3556
  C:1A9DH         LINE#         3557
  C:1AACH         LINE#         3558
  C:1AB3H         LINE#         3559
  C:1ABBH         LINE#         3560
  C:1ABBH         LINE#         3561
  C:1ACBH         LINE#         3562
  C:1ACEH         LINE#         3563
  C:1AD0H         LINE#         3565
  C:1AD5H         LINE#         3566
  C:1AD5H         LINE#         3567
BL51 BANKED LINKER/LOCATER V6.22                                                      05/30/2019  12:42:35  PAGE 164


  C:1AE5H         LINE#         3568
  C:1AECH         LINE#         3569
  C:1AF5H         LINE#         3570
  C:1AF5H         LINE#         3571
  C:1B03H         LINE#         3572
  C:1B06H         LINE#         3573
  C:1B08H         LINE#         3574
  C:1B22H         LINE#         3578
  C:1B28H         LINE#         3579
  C:1B28H         LINE#         3580
  C:1B2DH         LINE#         3581
  C:1B2DH         LINE#         3582
  C:1B3AH         LINE#         3583
  C:1B41H         LINE#         3584
  C:1B41H         LINE#         3585
  C:1B46H         LINE#         3586
  C:1B5EH         LINE#         3587
  C:1B63H         LINE#         3588
  C:1B75H         LINE#         3589
  C:1B78H         LINE#         3590
  C:1B78H         LINE#         3591
  C:1B7FH         LINE#         3592
  C:1B82H         LINE#         3593
  C:1B86H         LINE#         3594
  C:1B86H         LINE#         3595
  C:1B9EH         LINE#         3596
  C:1BA5H         LINE#         3597
  C:1BABH         LINE#         3598
  C:1BABH         LINE#         3599
  C:1BB0H         LINE#         3600
  C:1BB0H         LINE#         3601
  C:1BB8H         LINE#         3602
  C:1BBFH         LINE#         3603
  C:1BBFH         LINE#         3605
  C:1BCBH         LINE#         3606
  C:1BCBH         LINE#         3607
  C:1BDFH         LINE#         3608
  C:1BDFH         LINE#         3609
  C:1BE4H         LINE#         3610
  C:1BECH         LINE#         3611
  C:1BECH         LINE#         3612
  C:1BEFH         LINE#         3613
  C:1BF1H         LINE#         3615
  C:1BF1H         LINE#         3616
  C:1BF4H         LINE#         3617
  C:1BF4H         LINE#         3618
  C:1BF4H         LINE#         3620
  C:1BFFH         LINE#         3621
  C:1BFFH         LINE#         3622
  C:1C08H         LINE#         3623
  C:1C08H         LINE#         3624
  C:1C10H         LINE#         3625
  C:1C10H         LINE#         3629
  C:1C25H         LINE#         3632
  C:1C2AH         LINE#         3633
  C:1C2AH         LINE#         3634
  C:1C2BH         LINE#         3635
BL51 BANKED LINKER/LOCATER V6.22                                                      05/30/2019  12:42:35  PAGE 165


  C:1C2DH         LINE#         3637
  C:1C2DH         LINE#         3638
  C:1C35H         LINE#         3639
  C:1C35H         LINE#         3641
  C:1C3BH         LINE#         3642
  C:1C3BH         LINE#         3643
  C:1C3DH         LINE#         3644
  C:1C45H         LINE#         3645
  C:1C47H         LINE#         3647
  C:1C4CH         LINE#         3648
  C:1C4CH         LINE#         3649
  C:1C59H         LINE#         3650
  C:1C61H         LINE#         3651
  C:1C68H         LINE#         3652
  C:1C6DH         LINE#         3653
  C:1C70H         LINE#         3655
  C:1C70H         LINE#         3656
  C:1C75H         LINE#         3657
  C:1C75H         LINE#         3658
  C:1C7BH         LINE#         3659
  C:1C82H         LINE#         3661
  C:1C87H         LINE#         3662
  C:1C87H         LINE#         3663
  C:1C88H         LINE#         3664
  C:1C8AH         LINE#         3666
  C:1C8AH         LINE#         3667
  C:1C92H         LINE#         3668
  C:1C92H         LINE#         3669
  C:1C98H         LINE#         3670
  C:1C98H         LINE#         3671
  C:1C9AH         LINE#         3672
  C:1CA2H         LINE#         3673
  C:1CA4H         LINE#         3675
  C:1CA9H         LINE#         3676
  C:1CA9H         LINE#         3677
  C:1CB1H         LINE#         3678
  C:1CBBH         LINE#         3679
  C:1CBBH         LINE#         3680
  C:1CBBH         LINE#         3682
  C:1CBBH         LINE#         3688
  C:1CC0H         LINE#         3689
  C:1CC0H         LINE#         3690
  C:1CCCH         LINE#         3691
  C:1CD7H         LINE#         3692
  C:1CDEH         LINE#         3694
  C:1CE3H         LINE#         3695
  C:1CE3H         LINE#         3696
  C:1CE4H         LINE#         3697
  C:1CE6H         LINE#         3699
  C:1CE6H         LINE#         3700
  C:1CEEH         LINE#         3701
  C:1CEEH         LINE#         3702
  C:1CF4H         LINE#         3703
  C:1CF4H         LINE#         3704
  C:1CF6H         LINE#         3705
  C:1CFEH         LINE#         3706
  C:1D00H         LINE#         3708
BL51 BANKED LINKER/LOCATER V6.22                                                      05/30/2019  12:42:35  PAGE 166


  C:1D05H         LINE#         3709
  C:1D05H         LINE#         3710
  C:1D0DH         LINE#         3711
  C:1D14H         LINE#         3712
  C:1D14H         LINE#         3714
  C:1D19H         LINE#         3715
  C:1D19H         LINE#         3716
  C:1D23H         LINE#         3717
  C:1D2AH         LINE#         3718
  C:1D2FH         LINE#         3719
  C:1D2FH         LINE#         3720
  C:1D47H         LINE#         3721
  C:1D4EH         LINE#         3722
  C:1D53H         LINE#         3723
  C:1D53H         LINE#         3724
  C:1D63H         LINE#         3725
  C:1D78H         LINE#         3726
  C:1D7FH         LINE#         3728
  C:1D84H         LINE#         3729
  C:1D84H         LINE#         3730
  C:1D8EH         LINE#         3731
  C:1D95H         LINE#         3732
  C:1D9AH         LINE#         3733
  C:1D9AH         LINE#         3734
  C:1DB2H         LINE#         3735
  C:1DB9H         LINE#         3736
  C:1DBEH         LINE#         3737
  C:1DBEH         LINE#         3738
  C:1DCEH         LINE#         3739
  C:1DE3H         LINE#         3740
  C:1DEAH         LINE#         3741
  C:1DEDH         LINE#         3742
  C:1DEDH         LINE#         3743
  C:1DF4H         LINE#         3744
  C:1DF7H         LINE#         3745
  C:1DFAH         LINE#         3747
  C:1DFFH         LINE#         3748
  C:1DFFH         LINE#         3749
  C:1E0FH         LINE#         3750
  C:1E1EH         LINE#         3751
  C:1E25H         LINE#         3752
  C:1E25H         LINE#         3754
  C:1E2BH         LINE#         3755
  C:1E30H         LINE#         3756
  C:1E30H         LINE#         3757
  C:1E4AH         LINE#         3758
  C:1E51H         LINE#         3759
  C:1E56H         LINE#         3760
  C:1E56H         LINE#         3761
  C:1E70H         LINE#         3762
  C:1E77H         LINE#         3763
  C:1E7FH         LINE#         3776
  -------         ENDPROC       PRCSS_LL_ENC_REQ
  -------         PROC          PRCSS_LL_ENC_RSP
  C:CC01H         LINE#         3781
  C:CC01H         LINE#         3782
  C:CC01H         LINE#         3783
BL51 BANKED LINKER/LOCATER V6.22                                                      05/30/2019  12:42:35  PAGE 167


  -------         ENDPROC       PRCSS_LL_ENC_RSP
  -------         PROC          PRCSS_LL_START_ENC_REQ
  -------         DO            
  X:0B34H         SYMBOL        k
  -------         ENDDO         
  C:C051H         LINE#         3788
  C:C051H         LINE#         3789
  C:C051H         LINE#         3793
  C:C056H         LINE#         3794
  C:C05EH         LINE#         3796
  C:C05EH         LINE#         3797
  C:C062H         LINE#         3798
  C:C065H         LINE#         3800
  C:C068H         LINE#         3801
  C:C068H         LINE#         3802
  C:C076H         LINE#         3803
  C:C078H         LINE#         3804
  C:C078H         LINE#         3806
  C:C078H         LINE#         3807
  C:C078H         LINE#         3809
  C:C07FH         LINE#         3810
  C:C082H         LINE#         3811
  C:C089H         LINE#         3812
  C:C08CH         LINE#         3814
  C:C092H         LINE#         3815
  C:C098H         LINE#         3816
  C:C09AH         LINE#         3817
  -------         ENDPROC       PRCSS_LL_START_ENC_REQ
  -------         PROC          PRCSS_LL_START_ENC_RSP
  -------         DO            
  X:0B1DH         SYMBOL        i
  D:0007H         SYMBOL        tmp
  X:0B1EH         SYMBOL        result
  -------         ENDDO         
  C:937DH         LINE#         3822
  C:937DH         LINE#         3823
  C:937DH         LINE#         3827
  C:938EH         LINE#         3828
  C:938EH         LINE#         3829
  C:9390H         LINE#         3831
  C:9390H         LINE#         3832
  C:9393H         LINE#         3833
  C:9396H         LINE#         3834
  C:939CH         LINE#         3835
  C:93A7H         LINE#         3837
  C:93A9H         LINE#         3838
  C:93ABH         LINE#         3839
  C:93AFH         LINE#         3841
  C:93B4H         LINE#         3842
  C:93BAH         LINE#         3843
  C:93BAH         LINE#         3844
  C:93C0H         LINE#         3845
  C:93C0H         LINE#         3848
  C:93C0H         LINE#         3849
  C:93C0H         LINE#         3850
  C:93C0H         LINE#         3852
  C:93C0H         LINE#         3853
BL51 BANKED LINKER/LOCATER V6.22                                                      05/30/2019  12:42:35  PAGE 168


  C:93C0H         LINE#         3855
  C:93C7H         LINE#         3856
  C:93CFH         LINE#         3857
  C:93CFH         LINE#         3858
  C:93D7H         LINE#         3859
  C:93D7H         LINE#         3860
  C:93DDH         LINE#         3861
  C:93DFH         LINE#         3863
  C:93DFH         LINE#         3864
  C:93E3H         LINE#         3865
  C:93E3H         LINE#         3866
  C:93E9H         LINE#         3867
  C:93EBH         LINE#         3869
  C:93EBH         LINE#         3870
  C:93F2H         LINE#         3871
  C:93F2H         LINE#         3872
  C:93F5H         LINE#         3873
  C:93F7H         LINE#         3875
  C:93F7H         LINE#         3876
  C:93FAH         LINE#         3877
  C:93FDH         LINE#         3878
  C:9400H         LINE#         3879
  C:9403H         LINE#         3880
  C:9405H         LINE#         3881
  C:9405H         LINE#         3882
  C:9405H         LINE#         3883
  C:9405H         LINE#         3884
  C:9405H         LINE#         3885
  C:9410H         LINE#         3886
  C:9410H         LINE#         3887
  C:9413H         LINE#         3889
  C:9416H         LINE#         3890
  C:9419H         LINE#         3891
  C:941BH         LINE#         3894
  C:941DH         LINE#         3896
  C:9423H         LINE#         3897
  C:9423H         LINE#         3898
  C:9428H         LINE#         3899
  C:9428H         LINE#         3900
  C:9435H         LINE#         3901
  C:943CH         LINE#         3902
  C:943CH         LINE#         3904
  C:9441H         LINE#         3905
  C:9457H         LINE#         3907
  C:9466H         LINE#         3908
  C:9471H         LINE#         3910
  C:9477H         LINE#         3911
  C:9493H         LINE#         3913
  C:9496H         LINE#         3914
  C:9496H         LINE#         3915
  C:949AH         LINE#         3916
  C:949CH         LINE#         3918
  C:94A0H         LINE#         3919
  C:94A0H         LINE#         3920
  C:94C0H         LINE#         3921
  C:94C7H         LINE#         3923
  C:94EBH         LINE#         3924
BL51 BANKED LINKER/LOCATER V6.22                                                      05/30/2019  12:42:35  PAGE 169


  C:94EBH         LINE#         3925
  C:94EDH         LINE#         3926
  C:94EFH         LINE#         3928
  C:94EFH         LINE#         3929
  C:94F1H         LINE#         3930
  C:94F1H         LINE#         3932
  C:94F7H         LINE#         3933
  C:94F7H         LINE#         3934
  C:94FCH         LINE#         3935
  C:94FCH         LINE#         3936
  C:9502H         LINE#         3937
  C:950AH         LINE#         3938
  C:950AH         LINE#         3939
  C:950AH         LINE#         3940
  C:950AH         LINE#         3941
  C:950AH         LINE#         3942
  C:950AH         LINE#         3943
  C:950AH         LINE#         3944
  -------         ENDPROC       PRCSS_LL_START_ENC_RSP
  -------         PROC          PRCSS_LL_UNKNOWN_RSP
  C:CC02H         LINE#         3949
  C:CC02H         LINE#         3950
  C:CC02H         LINE#         3951
  -------         ENDPROC       PRCSS_LL_UNKNOWN_RSP
  -------         PROC          PRCSS_LL_FEATURE_REQ
  -------         DO            
  D:0007H         SYMBOL        i
  X:0A59H         SYMBOL        temp
  -------         ENDDO         
  C:C505H         LINE#         3956
  C:C505H         LINE#         3957
  C:C505H         LINE#         3960
  C:C50BH         LINE#         3961
  C:C50DH         LINE#         3962
  C:C50DH         LINE#         3963
  C:C527H         LINE#         3964
  C:C52DH         LINE#         3966
  -------         ENDPROC       PRCSS_LL_FEATURE_REQ
  -------         PROC          PRCSS_LL_FEATURE_RSP
  C:CC03H         LINE#         3972
  C:CC03H         LINE#         3973
  C:CC03H         LINE#         3974
  -------         ENDPROC       PRCSS_LL_FEATURE_RSP
  -------         PROC          PRCSS_LL_PAUSE_ENC_REQ
  -------         DO            
  X:0B58H         SYMBOL        i
  -------         ENDDO         
  C:B77BH         LINE#         3979
  C:B77BH         LINE#         3980
  C:B77BH         LINE#         3983
  C:B77BH         LINE#         3984
  C:B77EH         LINE#         3985
  C:B784H         LINE#         3986
  C:B78FH         LINE#         3987
  C:B792H         LINE#         3988
  C:B795H         LINE#         3989
  C:B79BH         LINE#         3991
BL51 BANKED LINKER/LOCATER V6.22                                                      05/30/2019  12:42:35  PAGE 170


  C:B7A2H         LINE#         3992
  C:B7A5H         LINE#         3994
  C:B7A7H         LINE#         3995
  C:B7AAH         LINE#         3996
  C:B7B4H         LINE#         3997
  C:B7BEH         LINE#         3998
  C:B7CDH         LINE#         3999
  C:B7CDH         LINE#         4000
  C:B7D4H         LINE#         4001
  C:B7DBH         LINE#         4002
  C:B7E3H         LINE#         4003
  C:B7E8H         LINE#         4004
  C:B7ECH         LINE#         4005
  C:B7F2H         LINE#         4006
  C:B7F4H         LINE#         4007
  -------         ENDPROC       PRCSS_LL_PAUSE_ENC_REQ
  -------         PROC          PRCSS_LL_PAUSE_ENC_RSP
  -------         DO            
  D:0007H         SYMBOL        i
  -------         ENDDO         
  C:C612H         LINE#         4012
  C:C612H         LINE#         4013
  C:C612H         LINE#         4016
  C:C617H         LINE#         4017
  C:C61BH         LINE#         4018
  C:C61BH         LINE#         4019
  C:C61EH         LINE#         4021
  C:C625H         LINE#         4022
  C:C62AH         LINE#         4024
  C:C62FH         LINE#         4026
  C:C62FH         LINE#         4027
  C:C62FH         LINE#         4028
  C:C639H         LINE#         4029
  C:C639H         LINE#         4031
  C:C63BH         LINE#         4032
  -------         ENDPROC       PRCSS_LL_PAUSE_ENC_RSP
  -------         PROC          PRCSS_LL_VERSION_IND
  -------         DO            
  X:0AB9H         SYMBOL        temp
  -------         ENDDO         
  C:C63CH         LINE#         4037
  C:C63CH         LINE#         4038
  C:C63CH         LINE#         4042
  C:C642H         LINE#         4043
  C:C646H         LINE#         4045
  C:C64BH         LINE#         4046
  C:C651H         LINE#         4048
  C:C656H         LINE#         4049
  C:C65BH         LINE#         4051
  -------         ENDPROC       PRCSS_LL_VERSION_IND
  -------         PROC          PRCSS_LL_REJECT_IND
  C:CC04H         LINE#         4057
  C:CC04H         LINE#         4058
  C:CC04H         LINE#         4059
  -------         ENDPROC       PRCSS_LL_REJECT_IND
  -------         PROC          PRCSS_LL_SLAVE_FEATURE_REQ
  C:CC05H         LINE#         4064
BL51 BANKED LINKER/LOCATER V6.22                                                      05/30/2019  12:42:35  PAGE 171


  C:CC05H         LINE#         4065
  C:CC05H         LINE#         4066
  -------         ENDPROC       PRCSS_LL_SLAVE_FEATURE_REQ
  -------         PROC          PRCSS_LL_CONNECT_PARAM_REQ
  C:CC06H         LINE#         4071
  C:CC06H         LINE#         4072
  C:CC06H         LINE#         4073
  -------         ENDPROC       PRCSS_LL_CONNECT_PARAM_REQ
  -------         PROC          PRCSS_LL_CONNECT_PARAM_RSP
  C:CC07H         LINE#         4078
  C:CC07H         LINE#         4079
  C:CC07H         LINE#         4080
  -------         ENDPROC       PRCSS_LL_CONNECT_PARAM_RSP
  -------         PROC          PRCSS_LL_REJECT_IND_EXT
  C:CC08H         LINE#         4085
  C:CC08H         LINE#         4086
  C:CC08H         LINE#         4087
  -------         ENDPROC       PRCSS_LL_REJECT_IND_EXT
  -------         PROC          PRCSS_LL_PING_REQ
  C:CC09H         LINE#         4092
  C:CC09H         LINE#         4093
  C:CC09H         LINE#         4094
  -------         ENDPROC       PRCSS_LL_PING_REQ
  -------         PROC          PRCSS_LL_PING_RSP
  C:CC0AH         LINE#         4099
  C:CC0AH         LINE#         4100
  C:CC0AH         LINE#         4101
  -------         ENDPROC       PRCSS_LL_PING_RSP
  -------         PROC          PRCSS_LL_LENGTH_REQ
  C:CC0BH         LINE#         4106
  C:CC0BH         LINE#         4107
  C:CC0BH         LINE#         4108
  -------         ENDPROC       PRCSS_LL_LENGTH_REQ
  -------         PROC          PRCSS_LL_LENGTH_RSP
  C:CC0CH         LINE#         4113
  C:CC0CH         LINE#         4114
  C:CC0CH         LINE#         4115
  -------         ENDPROC       PRCSS_LL_LENGTH_RSP
  -------         PROC          SETBLE_CONNDIS
  C:0326H         LINE#         4120
  C:0326H         LINE#         4121
  C:0326H         LINE#         4122
  C:0328H         LINE#         4123
  -------         ENDPROC       SETBLE_CONNDIS
  -------         PROC          _SETBLE_CONNTXDATA_ATT_ERROR_RESPONSE
  D:0007H         SYMBOL        Request_Opcode_In_Error
  D:0005H         SYMBOL        ATT_handle_in_error_L
  D:0003H         SYMBOL        ATT_handle_in_error_H
  X:0A16H         SYMBOL        Error_code
  -------         DO            
  X:0A17H         SYMBOL        temp
  -------         ENDDO         
  C:C5BCH         LINE#         4128
  C:C5BCH         LINE#         4129
  C:C5BCH         LINE#         4132
  C:C5BFH         LINE#         4133
  C:C5BFH         LINE#         4134
BL51 BANKED LINKER/LOCATER V6.22                                                      05/30/2019  12:42:35  PAGE 172


  C:C5C5H         LINE#         4135
  C:C5C8H         LINE#         4136
  C:C5CBH         LINE#         4137
  C:C5CEH         LINE#         4138
  C:C5D1H         LINE#         4139
  C:C5D4H         LINE#         4140
  C:C5DCH         LINE#         4142
  -------         ENDPROC       _SETBLE_CONNTXDATA_ATT_ERROR_RESPONSE
  -------         PROC          _SMPC1
  X:08E3H         SYMBOL        k
  X:08E6H         SYMBOL        r
  -------         DO            
  D:0007H         SYMBOL        i
  X:08E9H         SYMBOL        p_AES
  X:08F9H         SYMBOL        temp_aes
  -------         ENDDO         
  C:A00DH         LINE#         4148
  C:A013H         LINE#         4149
  C:A013H         LINE#         4154
  C:A015H         LINE#         4155
  C:A029H         LINE#         4157
  C:A02BH         LINE#         4158
  C:A045H         LINE#         4160
  C:A047H         LINE#         4161
  C:A05DH         LINE#         4163
  C:A065H         LINE#         4164
  C:A06DH         LINE#         4165
  C:A075H         LINE#         4166
  C:A07DH         LINE#         4167
  C:A085H         LINE#         4168
  C:A08DH         LINE#         4169
  C:A091H         LINE#         4172
  C:A098H         LINE#         4174
  C:A09BH         LINE#         4175
  C:A0A2H         LINE#         4177
  C:A0A8H         LINE#         4179
  C:A0ACH         LINE#         4180
  C:A0B3H         LINE#         4182
  C:A0B9H         LINE#         4184
  C:A0BBH         LINE#         4185
  C:A0C5H         LINE#         4187
  C:A0C8H         LINE#         4189
  C:A0CAH         LINE#         4190
  C:A0D7H         LINE#         4192
  C:A0D7H         LINE#         4193
  C:A0E1H         LINE#         4196
  C:A0E3H         LINE#         4197
  C:A0F1H         LINE#         4199
  C:A0F7H         LINE#         4200
  C:A0F7H         LINE#         4201
  C:A0F9H         LINE#         4202
  C:A112H         LINE#         4203
  C:A112H         LINE#         4205
  C:A112H         LINE#         4206
  C:A114H         LINE#         4207
  C:A122H         LINE#         4208
  C:A122H         LINE#         4210
BL51 BANKED LINKER/LOCATER V6.22                                                      05/30/2019  12:42:35  PAGE 173


  C:A124H         LINE#         4211
  C:A12EH         LINE#         4213
  -------         ENDPROC       _SMPC1
  -------         PROC          _SMPS1
  X:0977H         SYMBOL        r1
  X:097AH         SYMBOL        r2
  -------         DO            
  D:0007H         SYMBOL        i
  X:097DH         SYMBOL        temp_aes
  -------         ENDDO         
  C:C353H         LINE#         4219
  C:C359H         LINE#         4220
  C:C359H         LINE#         4224
  C:C35BH         LINE#         4225
  C:C35BH         LINE#         4226
  C:C366H         LINE#         4227
  C:C374H         LINE#         4228
  C:C37AH         LINE#         4230
  C:C37CH         LINE#         4231
  C:C38AH         LINE#         4233
  -------         ENDPROC       _SMPS1
  -------         PROC          A8107_READAESDATA
  -------         DO            
  D:0007H         SYMBOL        i
  D:0006H         SYMBOL        recv
  -------         ENDDO         
  C:CA12H         LINE#         4239
  C:CA12H         LINE#         4240
  C:CA12H         LINE#         4243
  C:CA14H         LINE#         4244
  C:CA14H         LINE#         4245
  C:CA1BH         LINE#         4246
  C:CA20H         LINE#         4247
  C:CA25H         LINE#         4248
  -------         ENDPROC       A8107_READAESDATA
  -------         PROC          SETBLE_LLBUSY
  -------         DO            
  D:0007H         SYMBOL        tmpInterval
  -------         ENDDO         
  C:C83AH         LINE#         4253
  C:C83AH         LINE#         4254
  C:C83AH         LINE#         4257
  C:C83CH         LINE#         4259
  C:C842H         LINE#         4260
  C:C856H         LINE#         4261
  -------         ENDPROC       SETBLE_LLBUSY
  -------         PROC          SMPAES
  -------         DO            
  D:0007H         SYMBOL        tmp
  X:0B59H         SYMBOL        i
  -------         ENDDO         
  C:BD83H         LINE#         4266
  C:BD83H         LINE#         4267
  C:BD83H         LINE#         4270
  C:BD89H         LINE#         4271
  C:BD89H         LINE#         4272
  C:BD8EH         LINE#         4273
BL51 BANKED LINKER/LOCATER V6.22                                                      05/30/2019  12:42:35  PAGE 174


  C:BD8EH         LINE#         4274
  C:BD9BH         LINE#         4275
  C:BDA5H         LINE#         4276
  C:BDA5H         LINE#         4277
  C:BDA8H         LINE#         4278
  C:BDABH         LINE#         4279
  C:BDAEH         LINE#         4280
  C:BDAEH         LINE#         4281
  C:BDB2H         LINE#         4282
  C:BDB4H         LINE#         4283
  C:BDB7H         LINE#         4284
  C:BDBDH         LINE#         4285
  C:BDBDH         LINE#         4286
  C:BDC2H         LINE#         4287
  C:BDC2H         LINE#         4288
  C:BDCAH         LINE#         4289
  C:BDD4H         LINE#         4290
  C:BDD4H         LINE#         4291
  -------         ENDPROC       SMPAES
  -------         PROC          A8107_WRITEAESKEY
  -------         DO            
  D:0007H         SYMBOL        i
  -------         ENDDO         
  C:C9BFH         LINE#         4296
  C:C9BFH         LINE#         4297
  C:C9BFH         LINE#         4300
  C:C9C1H         LINE#         4301
  C:C9D3H         LINE#         4302
  -------         ENDPROC       A8107_WRITEAESKEY
  -------         PROC          A8107_WRITEAESDATA
  -------         DO            
  D:0007H         SYMBOL        i
  -------         ENDDO         
  C:CA26H         LINE#         4307
  C:CA26H         LINE#         4308
  C:CA26H         LINE#         4311
  C:CA28H         LINE#         4312
  C:CA39H         LINE#         4313
  -------         ENDPROC       A8107_WRITEAESDATA
  C:6996H         SYMBOL        L?1490
  C:69A5H         SYMBOL        L?1604
  -------         PROC          TXDATA_PROCESS
  -------         DO            
  X:09C4H         SYMBOL        i
  D:0005H         SYMBOL        k
  D:0007H         SYMBOL        j
  D:0007H         SYMBOL        tmp
  X:09C5H         SYMBOL        temp
  -------         ENDDO         
  C:6620H         LINE#         4318
  C:6620H         LINE#         4319
  C:6620H         LINE#         4325
  C:6633H         LINE#         4326
  C:6633H         LINE#         4328
  C:6638H         LINE#         4329
  C:6638H         LINE#         4330
  C:664FH         LINE#         4331
BL51 BANKED LINKER/LOCATER V6.22                                                      05/30/2019  12:42:35  PAGE 175


  C:664FH         LINE#         4332
  C:6655H         LINE#         4333
  C:6655H         LINE#         4334
  C:665CH         LINE#         4335
  C:666BH         LINE#         4336
  C:666BH         LINE#         4337
  C:6674H         LINE#         4338
  C:667CH         LINE#         4339
  C:6687H         LINE#         4340
  C:668CH         LINE#         4341
  C:6695H         LINE#         4342
  C:6695H         LINE#         4343
  C:66A1H         LINE#         4344
  C:66A4H         LINE#         4345
  C:66A6H         LINE#         4346
  C:66C0H         LINE#         4350
  C:66C6H         LINE#         4351
  C:66C6H         LINE#         4352
  C:66CBH         LINE#         4353
  C:66CBH         LINE#         4354
  C:66D8H         LINE#         4355
  C:66DFH         LINE#         4356
  C:66DFH         LINE#         4357
  C:66E4H         LINE#         4358
  C:66FCH         LINE#         4359
  C:6701H         LINE#         4360
  C:6716H         LINE#         4361
  C:6719H         LINE#         4362
  C:6719H         LINE#         4363
  C:671DH         LINE#         4364
  C:671FH         LINE#         4365
  C:6723H         LINE#         4366
  C:6723H         LINE#         4367
  C:6732H         LINE#         4368
  C:6739H         LINE#         4369
  C:673FH         LINE#         4370
  C:673FH         LINE#         4371
  C:6744H         LINE#         4372
  C:6744H         LINE#         4373
  C:674CH         LINE#         4374
  C:6755H         LINE#         4375
  C:6755H         LINE#         4376
  C:6755H         LINE#         4378
  C:6755H         LINE#         4379
  C:675AH         LINE#         4380
  C:675AH         LINE#         4381
  C:6772H         LINE#         4382
  C:6779H         LINE#         4383
  C:6779H         LINE#         4385
  C:6779H         LINE#         4386
  C:6779H         LINE#         4387
  C:6779H         LINE#         4388
  C:6779H         LINE#         4389
  C:677EH         LINE#         4390
  C:6781H         LINE#         4391
  C:6781H         LINE#         4394
  C:679FH         LINE#         4395
BL51 BANKED LINKER/LOCATER V6.22                                                      05/30/2019  12:42:35  PAGE 176


  C:67B3H         LINE#         4396
  C:67BAH         LINE#         4397
  C:67BDH         LINE#         4399
  C:67C3H         LINE#         4400
  C:67C3H         LINE#         4401
  C:67D1H         LINE#         4402
  C:67D1H         LINE#         4403
  C:67D3H         LINE#         4404
  C:67D3H         LINE#         4405
  C:67D3H         LINE#         4406
  C:67D3H         LINE#         4407
  C:67D8H         LINE#         4408
  C:67DBH         LINE#         4409
  C:67DBH         LINE#         4411
  C:67EAH         LINE#         4412
  C:67F1H         LINE#         4413
  C:67F6H         LINE#         4414
  C:67F6H         LINE#         4416
  C:6806H         LINE#         4417
  C:680DH         LINE#         4418
  C:6815H         LINE#         4420
  C:681BH         LINE#         4422
  C:6822H         LINE#         4423
  C:6825H         LINE#         4424
  C:6825H         LINE#         4425
  C:682BH         LINE#         4426
  C:682DH         LINE#         4428
  C:682DH         LINE#         4429
  C:6837H         LINE#         4430
  C:6837H         LINE#         4431
  C:683AH         LINE#         4432
  C:683CH         LINE#         4434
  C:683CH         LINE#         4435
  C:683CH         LINE#         4436
  C:683CH         LINE#         4437
  C:683CH         LINE#         4438
  C:683CH         LINE#         4439
  C:683FH         LINE#         4440
  C:683FH         LINE#         4441
  C:683FH         LINE#         4442
  C:683FH         LINE#         4443
  C:684DH         LINE#         4444
  C:684DH         LINE#         4445
  C:684DH         LINE#         4446
  C:684DH         LINE#         4447
  C:684DH         LINE#         4448
  C:684DH         LINE#         4449
  C:6852H         LINE#         4450
  C:6855H         LINE#         4451
  C:6855H         LINE#         4452
  C:6862H         LINE#         4453
  C:6869H         LINE#         4454
  C:686CH         LINE#         4456
  C:6872H         LINE#         4457
  C:6872H         LINE#         4458
  C:6886H         LINE#         4459
  C:6886H         LINE#         4460
BL51 BANKED LINKER/LOCATER V6.22                                                      05/30/2019  12:42:35  PAGE 177


  C:688BH         LINE#         4461
  C:688BH         LINE#         4462
  C:688BH         LINE#         4463
  C:688BH         LINE#         4464
  C:6891H         LINE#         4466
  C:6897H         LINE#         4467
  C:6897H         LINE#         4468
  C:689BH         LINE#         4469
  C:689FH         LINE#         4470
  C:689FH         LINE#         4471
  C:68B1H         LINE#         4472
  C:68BAH         LINE#         4473
  C:68BAH         LINE#         4475
  C:68BAH         LINE#         4476
  C:68BFH         LINE#         4477
  C:68C2H         LINE#         4478
  C:68C2H         LINE#         4479
  C:68DCH         LINE#         4480
  C:68E3H         LINE#         4481
  C:68E3H         LINE#         4483
  C:68EBH         LINE#         4485
  C:68F2H         LINE#         4486
  C:68F8H         LINE#         4487
  C:68F8H         LINE#         4488
  C:68FBH         LINE#         4489
  C:68FDH         LINE#         4491
  C:68FDH         LINE#         4492
  C:68FDH         LINE#         4493
  C:68FDH         LINE#         4494
  C:68FDH         LINE#         4495
  C:68FDH         LINE#         4496
  C:6900H         LINE#         4497
  C:6900H         LINE#         4498
  C:6900H         LINE#         4499
  C:690EH         LINE#         4500
  C:690EH         LINE#         4501
  C:690EH         LINE#         4502
  C:690EH         LINE#         4503
  C:690EH         LINE#         4504
  C:690EH         LINE#         4505
  C:6913H         LINE#         4506
  C:6916H         LINE#         4507
  C:6916H         LINE#         4508
  C:6923H         LINE#         4509
  C:692AH         LINE#         4510
  C:6932H         LINE#         4512
  C:6938H         LINE#         4513
  C:693BH         LINE#         4514
  C:693EH         LINE#         4515
  C:6941H         LINE#         4516
  C:6943H         LINE#         4517
  C:6943H         LINE#         4518
  C:6951H         LINE#         4519
  C:6951H         LINE#         4520
  C:6957H         LINE#         4521
  C:6959H         LINE#         4522
  C:6961H         LINE#         4523
BL51 BANKED LINKER/LOCATER V6.22                                                      05/30/2019  12:42:35  PAGE 178


  C:6966H         LINE#         4524
  C:696AH         LINE#         4525
  C:696EH         LINE#         4526
  C:6972H         LINE#         4527
  C:6976H         LINE#         4528
  C:6986H         LINE#         4529
  C:6986H         LINE#         4530
  C:698CH         LINE#         4531
  C:6991H         LINE#         4532
  C:6993H         LINE#         4533
  C:6995H         LINE#         4534
  C:6995H         LINE#         4535
  -------         ENDPROC       TXDATA_PROCESS
  -------         PROC          BLE_GETLINKLOSSCOUNT
  C:CB73H         LINE#         4540
  C:CB73H         LINE#         4541
  C:CB73H         LINE#         4542
  C:CB7BH         LINE#         4543
  -------         ENDPROC       BLE_GETLINKLOSSCOUNT
  -------         PROC          BLE_SETTERMINATE
  C:032EH         LINE#         4548
  C:032EH         LINE#         4549
  C:032EH         LINE#         4550
  C:0334H         LINE#         4551
  C:033AH         LINE#         4552
  -------         ENDPROC       BLE_SETTERMINATE
  -------         PROC          BLE_AUTOPWRDOWN_ENABLE
  C:C538H         LINE#         4557
  C:C538H         LINE#         4558
  C:C538H         LINE#         4559
  C:C53AH         LINE#         4561
  C:C53FH         LINE#         4563
  C:C542H         LINE#         4564
  C:C542H         LINE#         4565
  C:C548H         LINE#         4567
  C:C54EH         LINE#         4568
  C:C54EH         LINE#         4569
  C:C54EH         LINE#         4570
  C:C551H         LINE#         4571
  C:C551H         LINE#         4572
  C:C551H         LINE#         4573
  C:C551H         LINE#         4574
  C:C551H         LINE#         4576
  C:C551H         LINE#         4577
  C:C551H         LINE#         4578
  C:C551H         LINE#         4580
  C:C554H         LINE#         4581
  C:C554H         LINE#         4582
  C:C55CH         LINE#         4583
  C:C55DH         LINE#         4584
  C:C55EH         LINE#         4585
  C:C55FH         LINE#         4586
  C:C560H         LINE#         4587
  C:C561H         LINE#         4588
  C:C562H         LINE#         4589
  C:C563H         LINE#         4590
  C:C564H         LINE#         4591
BL51 BANKED LINKER/LOCATER V6.22                                                      05/30/2019  12:42:35  PAGE 179


  C:C564H         LINE#         4592
  -------         ENDPROC       BLE_AUTOPWRDOWN_ENABLE
  -------         PROC          BLE_AUTOPWRDOWN_DISABLE
  C:033EH         LINE#         4597
  C:033EH         LINE#         4598
  C:033EH         LINE#         4599
  C:0340H         LINE#         4600
  -------         ENDPROC       BLE_AUTOPWRDOWN_DISABLE
  -------         PROC          BLE_GETPWRSTATE
  C:CBCBH         LINE#         4605
  C:CBCBH         LINE#         4606
  C:CBCBH         LINE#         4607
  C:CBD0H         LINE#         4608
  -------         ENDPROC       BLE_GETPWRSTATE
  -------         PROC          BLE_GETEMPTYCOUNT
  C:CBA6H         LINE#         4613
  C:CBA6H         LINE#         4614
  C:CBA6H         LINE#         4615
  C:CBACH         LINE#         4616
  -------         ENDPROC       BLE_GETEMPTYCOUNT
  -------         PROC          _BLE_SETCONNECTPARAMETERUPDATEREQUEST
  X:0A6AH         SYMBOL        minInterval
  D:0004H         SYMBOL        maxInterval
  X:0A6EH         SYMBOL        paraLatency
  X:0A70H         SYMBOL        paratimeout
  -------         DO            
  D:0003H         SYMBOL        errorcode
  -------         ENDDO         
  C:A81BH         LINE#         4621
  C:A82BH         LINE#         4622
  C:A82BH         LINE#         4625
  C:A82DH         LINE#         4627
  C:A83EH         LINE#         4628
  C:A83EH         LINE#         4629
  C:A844H         LINE#         4630
  C:A844H         LINE#         4631
  C:A856H         LINE#         4632
  C:A856H         LINE#         4633
  C:A868H         LINE#         4634
  C:A868H         LINE#         4635
  C:A871H         LINE#         4636
  C:A871H         LINE#         4637
  C:A880H         LINE#         4638
  C:A880H         LINE#         4639
  C:A892H         LINE#         4640
  C:A892H         LINE#         4641
  C:A894H         LINE#         4642
  C:A894H         LINE#         4643
  C:A896H         LINE#         4645
  C:A896H         LINE#         4646
  C:A898H         LINE#         4647
  C:A898H         LINE#         4648
  C:A89AH         LINE#         4650
  C:A89AH         LINE#         4651
  C:A89CH         LINE#         4652
  C:A89CH         LINE#         4653
  C:A89EH         LINE#         4655
BL51 BANKED LINKER/LOCATER V6.22                                                      05/30/2019  12:42:35  PAGE 180


  C:A89EH         LINE#         4656
  C:A8A0H         LINE#         4657
  C:A8A0H         LINE#         4658
  C:A8A2H         LINE#         4660
  C:A8A2H         LINE#         4661
  C:A8A4H         LINE#         4662
  C:A8A4H         LINE#         4664
  C:A8A7H         LINE#         4665
  C:A8A7H         LINE#         4666
  C:A8B0H         LINE#         4667
  C:A8B8H         LINE#         4668
  C:A8BBH         LINE#         4669
  C:A8BEH         LINE#         4670
  C:A8C9H         LINE#         4671
  C:A8CCH         LINE#         4672
  C:A8D7H         LINE#         4673
  C:A8DAH         LINE#         4675
  C:A8DCH         LINE#         4676
  C:A8E2H         LINE#         4677
  C:A8E2H         LINE#         4678
  C:A8E4H         LINE#         4680
  C:A8E4H         LINE#         4681
  C:A8E6H         LINE#         4682
  C:A8E6H         LINE#         4683
  C:A8E8H         LINE#         4685
  C:A8E8H         LINE#         4686
  C:A8EAH         LINE#         4687
  C:A8EAH         LINE#         4688
  C:A8EDH         LINE#         4689
  -------         ENDPROC       _BLE_SETCONNECTPARAMETERUPDATEREQUEST
  -------         PROC          BLE_GETCONNECTUPDATERESULT
  -------         DO            
  D:0006H         SYMBOL        tmpresult
  -------         ENDDO         
  C:C968H         LINE#         4694
  C:C968H         LINE#         4695
  C:C968H         LINE#         4698
  C:C96EH         LINE#         4700
  C:C975H         LINE#         4701
  C:C975H         LINE#         4702
  C:C97BH         LINE#         4703
  C:C97BH         LINE#         4705
  C:C97EH         LINE#         4706
  -------         ENDPROC       BLE_GETCONNECTUPDATERESULT
  -------         PROC          SETBLE_CONNECTUPDATE
  -------         DO            
  D:0007H         SYMBOL        i
  -------         ENDDO         
  C:C0E4H         LINE#         4711
  C:C0E4H         LINE#         4712
  C:C0E4H         LINE#         4715
  C:C0EAH         LINE#         4716
  C:C0EDH         LINE#         4717
  C:C0EEH         LINE#         4718
  C:C0EEH         LINE#         4719
  C:C0F4H         LINE#         4720
  C:C0FAH         LINE#         4721
BL51 BANKED LINKER/LOCATER V6.22                                                      05/30/2019  12:42:35  PAGE 181


  C:C0FFH         LINE#         4722
  C:C103H         LINE#         4723
  C:C106H         LINE#         4724
  C:C108H         LINE#         4725
  C:C108H         LINE#         4726
  C:C118H         LINE#         4727
  C:C11DH         LINE#         4728
  -------         ENDPROC       SETBLE_CONNECTUPDATE
  -------         PROC          BLE_GETCONNECTPARAMETER
  -------         DO            
  D:0006H         SYMBOL        writePtr
  -------         ENDDO         
  C:1FF3H         LINE#         4734
  C:1FF3H         LINE#         4735
  C:1FF3H         LINE#         4738
  C:1FF7H         LINE#         4740
  C:1FFFH         LINE#         4741
  -------         ENDPROC       BLE_GETCONNECTPARAMETER
  -------         PROC          BLE_GETTERMINATERESULT
  -------         DO            
  D:0006H         SYMBOL        tmp_result
  -------         ENDDO         
  C:CA7DH         LINE#         4746
  C:CA7DH         LINE#         4747
  C:CA7DH         LINE#         4750
  C:CA82H         LINE#         4752
  C:CA85H         LINE#         4753
  C:CA88H         LINE#         4755
  C:CA8BH         LINE#         4756
  -------         ENDPROC       BLE_GETTERMINATERESULT
  -------         PROC          BLE_WHITELIST_ENABLE
  C:0346H         LINE#         4761
  C:0346H         LINE#         4762
  C:0346H         LINE#         4763
  C:0348H         LINE#         4764
  -------         ENDPROC       BLE_WHITELIST_ENABLE
  -------         PROC          BLE_WHITELIST_DISABLE
  C:034EH         LINE#         4769
  C:034EH         LINE#         4770
  C:034EH         LINE#         4771
  C:0350H         LINE#         4772
  -------         ENDPROC       BLE_WHITELIST_DISABLE
  -------         PROC          BLE_GETWHITELIST_STATUS
  C:CBD1H         LINE#         4777
  C:CBD1H         LINE#         4778
  C:CBD1H         LINE#         4779
  C:CBD6H         LINE#         4780
  -------         ENDPROC       BLE_GETWHITELIST_STATUS
  -------         PROC          BLE_GETCONNECTSERVERADDRESS
  -------         DO            
  D:0006H         SYMBOL        writePtr
  -------         ENDDO         
  C:CAC6H         LINE#         4785
  C:CAC6H         LINE#         4786
  C:CAC6H         LINE#         4789
  C:CACAH         LINE#         4791
  C:CAD2H         LINE#         4792
BL51 BANKED LINKER/LOCATER V6.22                                                      05/30/2019  12:42:35  PAGE 182


  -------         ENDPROC       BLE_GETCONNECTSERVERADDRESS
  -------         PROC          _BLE_SETWHITELIST
  D:0001H         SYMBOL        tmpbuf
  -------         DO            
  D:0005H         SYMBOL        i
  D:0006H         SYMBOL        ptr
  -------         ENDDO         
  C:C780H         LINE#         4797
  C:C780H         LINE#         4798
  C:C780H         LINE#         4802
  C:C784H         LINE#         4804
  C:C786H         LINE#         4805
  C:C786H         LINE#         4806
  C:C78EH         LINE#         4807
  C:C793H         LINE#         4808
  C:C79AH         LINE#         4809
  C:C79FH         LINE#         4810
  -------         ENDPROC       _BLE_SETWHITELIST
  -------         PROC          RANDOMSEEDCOUNT
  C:CAEBH         LINE#         4815
  C:CAEBH         LINE#         4816
  C:CAEBH         LINE#         4817
  -------         ENDPROC       RANDOMSEEDCOUNT
  -------         PROC          GENERATIONLTK
  -------         DO            
  D:0007H         SYMBOL        i
  D:0006H         SYMBOL        tmp
  -------         ENDDO         
  C:BBD9H         LINE#         4823
  C:BBD9H         LINE#         4824
  C:BBD9H         LINE#         4827
  C:BBDFH         LINE#         4828
  C:BBEAH         LINE#         4829
  C:BBF5H         LINE#         4830
  C:BC02H         LINE#         4832
  C:BC04H         LINE#         4833
  C:BC16H         LINE#         4835
  C:BC19H         LINE#         4836
  C:BC19H         LINE#         4837
  C:BC1DH         LINE#         4838
  C:BC1FH         LINE#         4840
  C:BC20H         LINE#         4841
  C:BC20H         LINE#         4842
  C:BC2AH         LINE#         4843
  C:BC2FH         LINE#         4844
  -------         ENDPROC       GENERATIONLTK
  -------         PROC          CONSUMER_ENCRYPTION_STRUCT
  C:0356H         LINE#         4849
  C:0356H         LINE#         4850
  C:0356H         LINE#         4851
  C:0358H         LINE#         4852
  -------         ENDPROC       CONSUMER_ENCRYPTION_STRUCT
  -------         PROC          _CONSUMER_SETBONDING_STATUS
  D:0007H         SYMBOL        tmpstatus
  -------         DO            
  D:0006H         SYMBOL        errorcode
  -------         ENDDO         
BL51 BANKED LINKER/LOCATER V6.22                                                      05/30/2019  12:42:35  PAGE 183


  C:C8F3H         LINE#         4857
  C:C8F3H         LINE#         4858
  C:C8F3H         LINE#         4861
  C:C8F5H         LINE#         4863
  C:C8F9H         LINE#         4864
  C:C8F9H         LINE#         4865
  C:C8FBH         LINE#         4866
  C:C8FDH         LINE#         4867
  C:C8FFH         LINE#         4868
  C:C8FFH         LINE#         4870
  C:C902H         LINE#         4871
  C:C902H         LINE#         4872
  C:C904H         LINE#         4873
  C:C906H         LINE#         4874
  C:C907H         LINE#         4875
  C:C907H         LINE#         4877
  C:C90AH         LINE#         4878
  -------         ENDPROC       _CONSUMER_SETBONDING_STATUS
  -------         PROC          CONSUMER_GETBONDING_RESULT
  C:CA4CH         LINE#         4883
  C:CA4CH         LINE#         4884
  C:CA4CH         LINE#         4885
  C:CA4EH         LINE#         4887
  C:CA5CH         LINE#         4888
  -------         ENDPROC       CONSUMER_GETBONDING_RESULT
  -------         PROC          CONSUMER_BONDING_SUCCESS
  C:C6FDH         LINE#         4893
  C:C6FDH         LINE#         4894
  C:C6FDH         LINE#         4895
  C:C6FFH         LINE#         4897
  C:C702H         LINE#         4898
  C:C702H         LINE#         4899
  C:C705H         LINE#         4900
  C:C705H         LINE#         4901
  C:C708H         LINE#         4902
  C:C708H         LINE#         4903
  C:C70DH         LINE#         4904
  C:C70FH         LINE#         4905
  C:C70FH         LINE#         4907
  C:C715H         LINE#         4909
  C:C71BH         LINE#         4910
  C:C71BH         LINE#         4911
  C:C71EH         LINE#         4912
  C:C71EH         LINE#         4913
  C:C71EH         LINE#         4914
  C:C71EH         LINE#         4915
  -------         ENDPROC       CONSUMER_BONDING_SUCCESS
  -------         PROC          CONSUMER_BONDINGRESULT_CLEAR
  -------         DO            
  X:0B5AH         SYMBOL        errorcode
  D:0007H         SYMBOL        i
  -------         ENDDO         
  C:B6FDH         LINE#         4920
  C:B6FDH         LINE#         4921
  C:B6FDH         LINE#         4924
  C:B703H         LINE#         4925
  C:B709H         LINE#         4926
BL51 BANKED LINKER/LOCATER V6.22                                                      05/30/2019  12:42:35  PAGE 184


  C:B709H         LINE#         4927
  C:B711H         LINE#         4928
  C:B719H         LINE#         4930
  C:B71BH         LINE#         4931
  C:B71BH         LINE#         4932
  C:B728H         LINE#         4933
  C:B72DH         LINE#         4935
  C:B72FH         LINE#         4936
  C:B741H         LINE#         4938
  C:B744H         LINE#         4939
  C:B74BH         LINE#         4941
  C:B74DH         LINE#         4942
  C:B74DH         LINE#         4943
  C:B760H         LINE#         4944
  C:B765H         LINE#         4946
  C:B76CH         LINE#         4948
  C:B771H         LINE#         4950
  C:B773H         LINE#         4951
  C:B775H         LINE#         4952
  C:B775H         LINE#         4954
  C:B77AH         LINE#         4955
  -------         ENDPROC       CONSUMER_BONDINGRESULT_CLEAR
  -------         PROC          SMPPASSKEY_INIT
  -------         DO            
  D:0007H         SYMBOL        i
  -------         ENDDO         
  C:CB39H         LINE#         4960
  C:CB39H         LINE#         4961
  C:CB39H         LINE#         4964
  C:CB39H         LINE#         4965
  C:CB39H         LINE#         4966
  C:CB43H         LINE#         4967
  C:CB43H         LINE#         4968
  -------         ENDPROC       SMPPASSKEY_INIT
  -------         PROC          BLE_GETDISCONNECTREASON
  C:CBD7H         LINE#         4973
  C:CBD7H         LINE#         4974
  C:CBD7H         LINE#         4975
  C:CBDCH         LINE#         4976
  -------         ENDPROC       BLE_GETDISCONNECTREASON
  -------         PROC          RANDNUMBERGENERATOR
  -------         DO            
  D:0007H         SYMBOL        i
  -------         ENDDO         
  C:C81CH         LINE#         4981
  C:C81CH         LINE#         4982
  C:C81CH         LINE#         4985
  C:C824H         LINE#         4986
  C:C826H         LINE#         4987
  C:C827H         LINE#         4988
  C:C829H         LINE#         4989
  C:C833H         LINE#         4990
  C:C839H         LINE#         4992
  C:C839H         LINE#         4993
  -------         ENDPROC       RANDNUMBERGENERATOR
  -------         PROC          _CONSUMER_SETBONDING_USE_OLDKEY
  D:0007H         SYMBOL        tmpstatus
BL51 BANKED LINKER/LOCATER V6.22                                                      05/30/2019  12:42:35  PAGE 185


  C:7FEAH         LINE#         4998
  C:7FEAH         LINE#         4999
  C:7FEAH         LINE#         5000
  C:7FEEH         LINE#         5001
  C:7FEEH         LINE#         5002
  C:7FF0H         LINE#         5003
  C:7FF1H         LINE#         5005
  C:7FF1H         LINE#         5006
  C:7FF3H         LINE#         5007
  C:7FF3H         LINE#         5008
  -------         ENDPROC       _CONSUMER_SETBONDING_USE_OLDKEY
  -------         PROC          _CONSUMER_PAIRING_RULE_SELECT
  D:0007H         SYMBOL        tmpstatus
  C:CB7CH         LINE#         5013
  C:CB7CH         LINE#         5014
  C:CB7CH         LINE#         5015
  C:CB7FH         LINE#         5016
  C:CB7FH         LINE#         5017
  C:CB81H         LINE#         5018
  C:CB82H         LINE#         5020
  C:CB82H         LINE#         5021
  C:CB84H         LINE#         5022
  C:CB84H         LINE#         5023
  -------         ENDPROC       _CONSUMER_PAIRING_RULE_SELECT
  -------         PROC          CHECKBLETIMER
  -------         DO            
  D:0006H         SYMBOL        tmptmr
  X:0B4CH         SYMBOL        tmpInterval
  -------         ENDDO         
  C:B17BH         LINE#         5028
  C:B17BH         LINE#         5029
  C:B17BH         LINE#         5033
  C:B185H         LINE#         5034
  C:B185H         LINE#         5035
  C:B188H         LINE#         5036
  C:B18EH         LINE#         5038
  C:B191H         LINE#         5039
  C:B191H         LINE#         5040
  C:B194H         LINE#         5041
  C:B194H         LINE#         5042
  C:B197H         LINE#         5043
  C:B197H         LINE#         5044
  C:B1A1H         LINE#         5045
  C:B1A1H         LINE#         5046
  C:B1A1H         LINE#         5047
  C:B1A3H         LINE#         5049
  C:B1A3H         LINE#         5050
  C:B1A9H         LINE#         5051
  C:B1A9H         LINE#         5052
  C:B1ABH         LINE#         5054
  C:B1ABH         LINE#         5055
  C:B1B5H         LINE#         5056
  C:B1B5H         LINE#         5057
  C:B1D6H         LINE#         5058
  C:B1D8H         LINE#         5060
  C:B1D8H         LINE#         5061
  C:B1DEH         LINE#         5062
BL51 BANKED LINKER/LOCATER V6.22                                                      05/30/2019  12:42:35  PAGE 186


  C:B1DEH         LINE#         5063
  C:B1DEH         LINE#         5064
  C:B1E0H         LINE#         5066
  C:B1E0H         LINE#         5067
  C:B1F4H         LINE#         5068
  C:B1F4H         LINE#         5070
  C:B1F4H         LINE#         5071
  C:B1F7H         LINE#         5072
  C:B204H         LINE#         5073
  C:B204H         LINE#         5075
  C:B207H         LINE#         5076
  C:B20AH         LINE#         5077
  C:B20AH         LINE#         5078
  C:B210H         LINE#         5080
  C:B213H         LINE#         5081
  C:B213H         LINE#         5082
  -------         ENDPROC       CHECKBLETIMER
  -------         PROC          INIT_Q_ATT_HDL_PREWR
  -------         DO            
  D:0007H         SYMBOL        i
  -------         ENDDO         
  C:C9D4H         LINE#         5087
  C:C9D4H         LINE#         5088
  C:C9D4H         LINE#         5091
  C:C9D6H         LINE#         5092
  C:C9D9H         LINE#         5093
  C:C9D9H         LINE#         5094
  C:C9DAH         LINE#         5095
  C:C9E6H         LINE#         5096
  C:C9E8H         LINE#         5097
  -------         ENDPROC       INIT_Q_ATT_HDL_PREWR
  -------         ENDMOD        LINKLAYER

  -------         MODULE        RFA8107
  C:0000H         SYMBOL        _ICE_DUMMY_
  C:CBE3H         PUBLIC        RF_GetBatteryResult
  C:030EH         PUBLIC        EnableTimer0
  D:0080H         PUBLIC        P0
  D:0090H         PUBLIC        P1
  D:00A0H         PUBLIC        P2
  D:00B0H         PUBLIC        P3
  C:B214H         PUBLIC        A8107_Cal
  B:00A8H.7       PUBLIC        EA
  C:CBDDH         PUBLIC        _StrobeCmd
  C:CBF5H         PUBLIC        InterruptDisable
  C:CB9EH         PUBLIC        _InitCrystalCL
  D:00A8H         PUBLIC        IE
  C:C9E9H         PUBLIC        A8107_WriteID
  D:00B8H         PUBLIC        IP
  C:CBF8H         PUBLIC        InterruptEnable
  C:BEC8H         PUBLIC        Timer0ISR
  C:CA8CH         PUBLIC        RF_RC_Disable
  C:BC30H         PUBLIC        _CHGroupCal
  C:C1ADH         PUBLIC        InitRF
  D:0098H         PUBLIC        SCON
  D:0089H         PUBLIC        TMOD
  D:0088H         PUBLIC        TCON
BL51 BANKED LINKER/LOCATER V6.22                                                      05/30/2019  12:42:35  PAGE 187


  C:1EA9H         PUBLIC        BatteryDetect
  C:CBE9H         PUBLIC        RF_Get_Partial_InitRF_Result
  C:A131H         PUBLIC        _BLE_SetTxPower
  C:B67CH         PUBLIC        ADV_ID_Tab
  B:00A8H.1       PUBLIC        ET0
  B:0088H.5       PUBLIC        TF0
  C:C7DEH         PUBLIC        InitTimer0
  C:AF91H         PUBLIC        A8107_Config
  D:008CH         PUBLIC        TH0
  D:008AH         PUBLIC        TL0
  D:00E8H         PUBLIC        EIE
  B:00B8H.1       PUBLIC        PT0
  B:0088H.4       PUBLIC        TR0
  C:B6EFH         PUBLIC        LIB_VERSION
  C:CB85H         PUBLIC        RF_GetRSSIResult
  C:AE2EH         PUBLIC        Partial_InitRF
  C:8C7EH         PUBLIC        SetRxWindowTiming
  C:C857H         PUBLIC        GetRSSI
  C:B680H         PUBLIC        A8107_ConfigTab
  D:00C8H         PUBLIC        T2CON
  C:B8D9H         PUBLIC        A8107_RCSelect
  C:CB44H         PUBLIC        DisableTimer0
  C:CA6DH         PUBLIC        InitCRC
  D:008EH         PUBLIC        CKCON
  C:C88EH         PUBLIC        __Delay5us
  C:C006H         PUBLIC        _RF_Timer500ms
  D:00E2H         PUBLIC        P3PUN
  D:00D0H         PUBLIC        PSW
  D:00BBH         PUBLIC        IOSEL
  C:8A93H         SYMBOL        Com00D8
  C:8A93H         SYMBOL        L?0217
  C:8A93H         SYMBOL        L?0218
  C:8AA5H         SYMBOL        L?0219
  C:8AA7H         SYMBOL        L?0220
  C:8AB1H         SYMBOL        L?0221
  C:8AB1H         SYMBOL        L?0222
  C:8AB4H         SYMBOL        L?0223
  C:8AC8H         SYMBOL        L?0224
  C:8AC8H         SYMBOL        L?0225
  C:8AD4H         SYMBOL        L?0226
  C:8AD4H         SYMBOL        L?0227
  C:8AFAH         SYMBOL        L?0228
  C:8AFAH         SYMBOL        L?0229
  C:8B00H         SYMBOL        L?0230
  C:8B07H         SYMBOL        L?0231
  C:8B07H         SYMBOL        L?0232
  C:8B0FH         SYMBOL        L?0233
  C:8B33H         SYMBOL        L?0234
  C:8B33H         SYMBOL        L?0235
  C:8B3BH         SYMBOL        L?0236
  C:8B43H         SYMBOL        L?0237
  C:8B54H         SYMBOL        L?0238
  C:8B5FH         SYMBOL        L?0239
  C:8B5FH         SYMBOL        L?0240
  C:8B72H         SYMBOL        L?0241
  C:8B72H         SYMBOL        L?0242
  C:8B7FH         SYMBOL        L?0243
BL51 BANKED LINKER/LOCATER V6.22                                                      05/30/2019  12:42:35  PAGE 188


  C:8B9CH         SYMBOL        L?0244
  C:8BB7H         SYMBOL        L?0245
  C:8BD2H         SYMBOL        L?0246
  C:8BD5H         SYMBOL        L?0247
  C:8BDCH         SYMBOL        L?0248
  C:8BDCH         SYMBOL        L?0249
  C:8BE9H         SYMBOL        L?0250
  C:8BE9H         SYMBOL        L?0251
  C:8BEBH         SYMBOL        L?0252
  C:8BF3H         SYMBOL        L?0253
  C:8C05H         SYMBOL        L?0254
  C:8C16H         SYMBOL        L?0255
  C:8C16H         SYMBOL        L?0256
  C:8C1DH         SYMBOL        L?0257
  C:8C1DH         SYMBOL        L?0258
  C:8C25H         SYMBOL        L?0259
  C:8C25H         SYMBOL        L?0260
  C:8C2EH         SYMBOL        L?0261
  C:8C2EH         SYMBOL        L?0262
  C:8C37H         SYMBOL        L?0263
  C:8C44H         SYMBOL        L?0264
  C:8C44H         SYMBOL        L?0265
  C:8C4BH         SYMBOL        L?0266
  C:8C58H         SYMBOL        L?0268
  C:8C64H         SYMBOL        L?0269
  C:8C64H         SYMBOL        L?0270
  C:8C6CH         SYMBOL        L?0272
  C:8C77H         SYMBOL        L?0273
  C:8C77H         SYMBOL        L?0274
  -------         PROC          COM00D8
  -------         ENDPROC       COM00D8
  -------         PROC          INITRF
  -------         DO            
  X:0B37H         SYMBOL        j
  X:0B38H         SYMBOL        ReCal_counter
  X:0B39H         SYMBOL        error_code
  -------         ENDDO         
  C:C1ADH         LINE#         162
  C:C1ADH         LINE#         163
  C:C1ADH         LINE#         166
  C:C1B2H         LINE#         167
  C:C1B2H         LINE#         168
  C:C1B8H         LINE#         169
  C:C1B8H         LINE#         170
  C:C1B8H         LINE#         171
  C:C1B8H         LINE#         172
  C:C1BBH         LINE#         173
  C:C1BEH         LINE#         175
  C:C1C3H         LINE#         176
  C:C1D0H         LINE#         178
  C:C1D8H         LINE#         179
  C:C1DEH         LINE#         180
  C:C1E7H         LINE#         182
  C:C1ECH         LINE#         183
  -------         ENDPROC       INITRF
  -------         PROC          A8107_WRITEID
  -------         DO            
BL51 BANKED LINKER/LOCATER V6.22                                                      05/30/2019  12:42:35  PAGE 189


  D:0007H         SYMBOL        i
  -------         ENDDO         
  C:C9E9H         LINE#         188
  C:C9E9H         LINE#         189
  C:C9E9H         LINE#         193
  C:C9EBH         LINE#         194
  C:C9FDH         LINE#         195
  -------         ENDPROC       A8107_WRITEID
  -------         PROC          A8107_CONFIG
  -------         DO            
  X:0B4EH         SYMBOL        i
  X:0B4FH         SYMBOL        j
  -------         ENDDO         
  C:AF91H         LINE#         200
  C:AF91H         LINE#         201
  C:AF91H         LINE#         223
  C:AF96H         LINE#         225
  C:AF9CH         LINE#         226
  C:AF9CH         LINE#         227
  C:AFA5H         LINE#         228
  C:AFAEH         LINE#         229
  C:AFB5H         LINE#         231
  C:AFB7H         LINE#         232
  C:AFC1H         LINE#         233
  C:AFC1H         LINE#         234
  C:AFC6H         LINE#         235
  C:AFC9H         LINE#         236
  C:AFCEH         LINE#         238
  C:AFCEH         LINE#         239
  C:AFCEH         LINE#         241
  C:AFCEH         LINE#         242
  C:AFCEH         LINE#         244
  C:AFD5H         LINE#         245
  C:AFE2H         LINE#         247
  C:AFE4H         LINE#         248
  C:AFEEH         LINE#         249
  C:AFEEH         LINE#         250
  C:AFF3H         LINE#         251
  C:AFF6H         LINE#         252
  C:AFFBH         LINE#         254
  C:B000H         LINE#         255
  C:B00AH         LINE#         256
  C:B00AH         LINE#         257
  C:B00FH         LINE#         258
  C:B012H         LINE#         259
  C:B017H         LINE#         261
  C:B017H         LINE#         262
  C:B017H         LINE#         263
  C:B017H         LINE#         264
  C:B01AH         LINE#         266
  C:B01FH         LINE#         267
  C:B029H         LINE#         268
  C:B029H         LINE#         269
  C:B02EH         LINE#         270
  C:B031H         LINE#         271
  C:B036H         LINE#         273
  C:B036H         LINE#         274
BL51 BANKED LINKER/LOCATER V6.22                                                      05/30/2019  12:42:35  PAGE 190


  C:B036H         LINE#         275
  C:B036H         LINE#         276
  C:B039H         LINE#         277
  -------         ENDPROC       A8107_CONFIG
  C:B29FH         SYMBOL        L?0267
  -------         PROC          A8107_CAL
  -------         DO            
  X:0B50H         SYMBOL        fbcf
  X:0B51H         SYMBOL        vccf
  D:0007H         SYMBOL        error_code
  -------         ENDDO         
  C:B214H         LINE#         282
  C:B214H         LINE#         283
  C:B214H         LINE#         286
  C:B219H         LINE#         289
  C:B21FH         LINE#         290
  C:B221H         LINE#         291
  C:B224H         LINE#         292
  C:B227H         LINE#         293
  C:B22AH         LINE#         297
  C:B235H         LINE#         298
  C:B242H         LINE#         300
  C:B247H         LINE#         301
  C:B24CH         LINE#         302
  C:B24CH         LINE#         303
  C:B24CH         LINE#         304
  C:B24FH         LINE#         305
  C:B252H         LINE#         306
  C:B252H         LINE#         309
  C:B257H         LINE#         310
  C:B25AH         LINE#         311
  C:B25FH         LINE#         312
  C:B262H         LINE#         313
  C:B267H         LINE#         314
  C:B26AH         LINE#         315
  C:B26BH         LINE#         316
  C:B26BH         LINE#         317
  C:B26BH         LINE#         318
  C:B26BH         LINE#         319
  C:B26CH         LINE#         320
  C:B26CH         LINE#         321
  C:B26CH         LINE#         322
  C:B26CH         LINE#         323
  C:B26DH         LINE#         324
  C:B26DH         LINE#         326
  C:B272H         LINE#         329
  C:B27FH         LINE#         330
  C:B28CH         LINE#         333
  C:B28CH         LINE#         334
  C:B28CH         LINE#         335
  C:B28FH         LINE#         338
  C:B299H         LINE#         339
  C:B29CH         LINE#         340
  C:B29CH         LINE#         341
  C:B29CH         LINE#         342
  C:B29EH         LINE#         343
  C:B29EH         LINE#         344
BL51 BANKED LINKER/LOCATER V6.22                                                      05/30/2019  12:42:35  PAGE 191


  -------         ENDPROC       A8107_CAL
  -------         PROC          _STROBECMD
  D:0007H         SYMBOL        cmd
  C:CBDDH         LINE#         349
  C:CBDDH         LINE#         350
  C:CBDDH         LINE#         351
  C:CBE2H         LINE#         352
  -------         ENDPROC       _STROBECMD
  C:BC7BH         SYMBOL        L?0271
  -------         PROC          _CHGROUPCAL
  D:0007H         SYMBOL        ch
  -------         DO            
  D:0007H         SYMBOL        vbcf
  -------         ENDDO         
  C:BC30H         LINE#         357
  C:BC30H         LINE#         358
  C:BC30H         LINE#         361
  C:BC35H         LINE#         362
  C:BC38H         LINE#         363
  C:BC3BH         LINE#         364
  C:BC46H         LINE#         365
  C:BC53H         LINE#         367
  C:BC58H         LINE#         368
  C:BC5EH         LINE#         369
  C:BC5EH         LINE#         370
  C:BC5EH         LINE#         371
  C:BC61H         LINE#         372
  C:BC64H         LINE#         373
  C:BC64H         LINE#         376
  C:BC70H         LINE#         378
  C:BC72H         LINE#         379
  C:BC72H         LINE#         380
  C:BC72H         LINE#         381
  C:BC75H         LINE#         382
  C:BC78H         LINE#         383
  C:BC78H         LINE#         384
  C:BC78H         LINE#         385
  C:BC7AH         LINE#         386
  C:BC7AH         LINE#         387
  -------         ENDPROC       _CHGROUPCAL
  -------         PROC          INITCRC
  -------         DO            
  D:0007H         SYMBOL        i
  -------         ENDDO         
  C:CA6DH         LINE#         392
  C:CA6DH         LINE#         393
  C:CA6DH         LINE#         396
  C:CA6FH         LINE#         397
  C:CA6FH         LINE#         398
  C:CA77H         LINE#         399
  C:CA7CH         LINE#         400
  -------         ENDPROC       INITCRC
  -------         PROC          A8107_RCSELECT
  B:0029H.4       SYMBOL        rcselect
  -------         DO            
  D:0007H         SYMBOL        tmp
  -------         ENDDO         
BL51 BANKED LINKER/LOCATER V6.22                                                      05/30/2019  12:42:35  PAGE 192


  C:B8D9H         LINE#         405
  C:B8D9H         LINE#         406
  C:B8D9H         LINE#         409
  C:B8DCH         LINE#         410
  C:B8DCH         LINE#         411
  C:B8E1H         LINE#         413
  C:B8E7H         LINE#         414
  C:B8EAH         LINE#         416
  C:B8F5H         LINE#         417
  C:B8F5H         LINE#         418
  C:B8FCH         LINE#         419
  C:B8FEH         LINE#         422
  C:B905H         LINE#         423
  C:B905H         LINE#         424
  C:B907H         LINE#         425
  C:B907H         LINE#         426
  C:B909H         LINE#         428
  C:B909H         LINE#         429
  C:B90FH         LINE#         430
  C:B913H         LINE#         431
  C:B913H         LINE#         435
  C:B918H         LINE#         436
  C:B918H         LINE#         438
  C:B918H         LINE#         439
  C:B91BH         LINE#         440
  C:B91EH         LINE#         443
  C:B925H         LINE#         444
  C:B925H         LINE#         445
  C:B927H         LINE#         446
  C:B927H         LINE#         447
  C:B929H         LINE#         449
  C:B929H         LINE#         450
  C:B931H         LINE#         451
  C:B935H         LINE#         452
  C:B935H         LINE#         455
  C:B93CH         LINE#         456
  C:B93FH         LINE#         457
  C:B93FH         LINE#         458
  -------         ENDPROC       A8107_RCSELECT
  -------         PROC          _INITCRYSTALCL
  D:0007H         SYMBOL        databyte
  C:CB9EH         LINE#         463
  C:CB9EH         LINE#         464
  C:CB9EH         LINE#         465
  C:CBA5H         LINE#         466
  -------         ENDPROC       _INITCRYSTALCL
  -------         PROC          RF_RC_DISABLE
  C:CA8CH         LINE#         471
  C:CA8CH         LINE#         472
  C:CA8CH         LINE#         473
  C:CA91H         LINE#         474
  C:CA94H         LINE#         475
  C:CA97H         LINE#         476
  C:CA9AH         LINE#         477
  -------         ENDPROC       RF_RC_DISABLE
  -------         PROC          INTERRUPTDISABLE
  C:CBF5H         LINE#         482
BL51 BANKED LINKER/LOCATER V6.22                                                      05/30/2019  12:42:35  PAGE 193


  C:CBF5H         LINE#         483
  C:CBF5H         LINE#         484
  C:CBF7H         LINE#         485
  -------         ENDPROC       INTERRUPTDISABLE
  -------         PROC          INTERRUPTENABLE
  C:CBF8H         LINE#         490
  C:CBF8H         LINE#         491
  C:CBF8H         LINE#         492
  C:CBFAH         LINE#         493
  -------         ENDPROC       INTERRUPTENABLE
  -------         PROC          _BLE_SETTXPOWER
  D:0007H         SYMBOL        amplevel
  -------         DO            
  D:0007H         SYMBOL        tmpamp
  X:0B5BH         SYMBOL        real_power
  D:0004H         SYMBOL        i
  -------         ENDDO         
  C:A131H         LINE#         498
  C:A131H         LINE#         499
  C:A131H         LINE#         504
  C:A136H         LINE#         505
  C:A138H         LINE#         507
  C:A160H         LINE#         508
  C:A160H         LINE#         509
  C:A160H         LINE#         510
  C:A163H         LINE#         511
  C:A163H         LINE#         512
  C:A169H         LINE#         513
  C:A16CH         LINE#         515
  C:A16CH         LINE#         516
  C:A171H         LINE#         517
  C:A171H         LINE#         518
  C:A177H         LINE#         519
  C:A17AH         LINE#         521
  C:A17AH         LINE#         522
  C:A17FH         LINE#         523
  C:A17FH         LINE#         524
  C:A185H         LINE#         525
  C:A188H         LINE#         527
  C:A188H         LINE#         528
  C:A18DH         LINE#         529
  C:A18DH         LINE#         530
  C:A193H         LINE#         531
  C:A196H         LINE#         533
  C:A196H         LINE#         534
  C:A19FH         LINE#         535
  C:A1A3H         LINE#         536
  C:A1A8H         LINE#         537
  C:A1ABH         LINE#         539
  C:A1ABH         LINE#         540
  C:A1B0H         LINE#         541
  C:A1B0H         LINE#         542
  C:A1B6H         LINE#         543
  C:A1B8H         LINE#         545
  C:A1B8H         LINE#         546
  C:A1BDH         LINE#         547
  C:A1BDH         LINE#         548
BL51 BANKED LINKER/LOCATER V6.22                                                      05/30/2019  12:42:35  PAGE 194


  C:A1C3H         LINE#         549
  C:A1C5H         LINE#         551
  C:A1C5H         LINE#         552
  C:A1CAH         LINE#         553
  C:A1CAH         LINE#         554
  C:A1D0H         LINE#         555
  C:A1D2H         LINE#         557
  C:A1D2H         LINE#         558
  C:A1D7H         LINE#         559
  C:A1D7H         LINE#         560
  C:A1DDH         LINE#         561
  C:A1DFH         LINE#         563
  C:A1DFH         LINE#         564
  C:A1E4H         LINE#         565
  C:A1E4H         LINE#         566
  C:A1EAH         LINE#         567
  C:A1ECH         LINE#         569
  C:A1ECH         LINE#         570
  C:A1F1H         LINE#         571
  C:A1F1H         LINE#         572
  C:A1F7H         LINE#         573
  C:A1F7H         LINE#         575
  C:A1F7H         LINE#         576
  C:A1F7H         LINE#         577
  C:A1F7H         LINE#         579
  C:A1FEH         LINE#         580
  C:A1FEH         LINE#         581
  C:A201H         LINE#         583
  C:A201H         LINE#         584
  C:A210H         LINE#         585
  C:A210H         LINE#         586
  C:A220H         LINE#         587
  C:A220H         LINE#         588
  C:A220H         LINE#         589
  C:A220H         LINE#         590
  C:A220H         LINE#         591
  C:A225H         LINE#         592
  C:A231H         LINE#         594
  C:A250H         LINE#         595
  C:A250H         LINE#         596
  -------         ENDPROC       _BLE_SETTXPOWER
  -------         PROC          INITTIMER0
  C:C7DEH         LINE#         601
  C:C7DEH         LINE#         602
  C:C7DEH         LINE#         603
  C:C7E0H         LINE#         604
  C:C7E8H         LINE#         605
  C:C7EBH         LINE#         607
  C:C7EEH         LINE#         609
  C:C7F0H         LINE#         610
  C:C7F2H         LINE#         611
  C:C7F4H         LINE#         612
  C:C7F7H         LINE#         613
  C:C7FCH         LINE#         614
  -------         ENDPROC       INITTIMER0
  -------         PROC          TIMER0ISR
  C:BEC8H         LINE#         619
BL51 BANKED LINKER/LOCATER V6.22                                                      05/30/2019  12:42:35  PAGE 195


  C:BEEAH         LINE#         621
  C:BEECH         LINE#         623
  C:BEEFH         LINE#         625
  C:BEF5H         LINE#         626
  -------         ENDPROC       TIMER0ISR
  -------         PROC          ENABLETIMER0
  C:030EH         LINE#         631
  C:030EH         LINE#         632
  C:030EH         LINE#         633
  C:0310H         LINE#         634
  C:0312H         LINE#         635
  -------         ENDPROC       ENABLETIMER0
  -------         PROC          DISABLETIMER0
  C:CB44H         LINE#         640
  C:CB44H         LINE#         641
  C:CB44H         LINE#         642
  C:CB46H         LINE#         643
  C:CB48H         LINE#         644
  C:CB4DH         LINE#         645
  -------         ENDPROC       DISABLETIMER0
  -------         PROC          GETRSSI
  -------         DO            
  D:0005H         SYMBOL        tmp1
  D:0007H         SYMBOL        tmp2
  -------         ENDDO         
  C:C857H         LINE#         650
  C:C857H         LINE#         651
  C:C857H         LINE#         654
  C:C85CH         LINE#         655
  C:C868H         LINE#         656
  C:C872H         LINE#         657
  -------         ENDPROC       GETRSSI
  -------         PROC          SETRXWINDOWTIMING
  -------         DO            
  D:0006H         SYMBOL        tempEvent
  X:0B21H         SYMBOL        latency_calvalue
  -------         ENDDO         
  C:8C7EH         LINE#         662
  C:8C7EH         LINE#         663
  C:8C7EH         LINE#         667
  C:8C84H         LINE#         668
  C:8C84H         LINE#         669
  C:8C95H         LINE#         670
  C:8CB8H         LINE#         672
  C:8CCCH         LINE#         673
  C:8CD4H         LINE#         674
  C:8CD5H         LINE#         676
  C:8CD5H         LINE#         677
  C:8CDDH         LINE#         678
  C:8CDDH         LINE#         679
  C:8CE0H         LINE#         680
  C:8CE3H         LINE#         681
  C:8CE6H         LINE#         682
  C:8CEEH         LINE#         683
  C:8CEEH         LINE#         684
  C:8CF4H         LINE#         685
  C:8CF4H         LINE#         686
BL51 BANKED LINKER/LOCATER V6.22                                                      05/30/2019  12:42:35  PAGE 196


  C:8CFBH         LINE#         687
  C:8CFBH         LINE#         688
  C:8D04H         LINE#         689
  C:8D0BH         LINE#         690
  C:8D0EH         LINE#         692
  C:8D0EH         LINE#         693
  C:8D0EH         LINE#         694
  C:8D0EH         LINE#         695
  C:8D0EH         LINE#         696
  C:8D11H         LINE#         698
  C:8D11H         LINE#         699
  C:8D14H         LINE#         700
  C:8D14H         LINE#         701
  C:8D24H         LINE#         702
  C:8D24H         LINE#         704
  C:8D55H         LINE#         705
  C:8D67H         LINE#         706
  C:8D6AH         LINE#         715
  C:8D6AH         LINE#         717
  C:8D6EH         LINE#         718
  C:8D6EH         LINE#         719
  C:8D6EH         LINE#         720
  C:8D6EH         LINE#         721
  C:8D71H         LINE#         723
  C:8D71H         LINE#         724
  C:8D7FH         LINE#         725
  C:8D7FH         LINE#         726
  C:8D85H         LINE#         727
  C:8D85H         LINE#         728
  C:8D88H         LINE#         729
  C:8D88H         LINE#         730
  C:8D95H         LINE#         731
  C:8D95H         LINE#         733
  C:8D95H         LINE#         734
  C:8D95H         LINE#         735
  C:8D97H         LINE#         737
  C:8D97H         LINE#         739
  C:8DA1H         LINE#         740
  C:8DA8H         LINE#         741
  C:8DA8H         LINE#         742
  C:8DABH         LINE#         744
  C:8DABH         LINE#         745
  C:8DBEH         LINE#         746
  C:8DBEH         LINE#         748
  C:8DF0H         LINE#         749
  C:8DFEH         LINE#         750
  C:8E01H         LINE#         752
  C:8E01H         LINE#         754
  C:8E0BH         LINE#         755
  C:8E12H         LINE#         756
  C:8E12H         LINE#         757
  C:8E12H         LINE#         758
  C:8E14H         LINE#         760
  C:8E14H         LINE#         762
  C:8E22H         LINE#         763
  C:8E29H         LINE#         764
  C:8E29H         LINE#         765
BL51 BANKED LINKER/LOCATER V6.22                                                      05/30/2019  12:42:35  PAGE 197


  C:8E2BH         LINE#         767
  C:8E2BH         LINE#         769
  C:8E39H         LINE#         770
  C:8E43H         LINE#         771
  C:8E43H         LINE#         772
  C:8E43H         LINE#         774
  C:8E46H         LINE#         775
  C:8E46H         LINE#         776
  C:8E49H         LINE#         777
  C:8E4CH         LINE#         778
  C:8E4CH         LINE#         779
  C:8E4CH         LINE#         780
  -------         ENDPROC       SETRXWINDOWTIMING
  -------         PROC          __DELAY5US
  D:0007H         SYMBOL        delay_cnt
  -------         DO            
  D:0004H         SYMBOL        i
  -------         ENDDO         
  C:C88EH         LINE#         785
  C:C88EH         LINE#         786
  C:C88EH         LINE#         789
  C:C895H         LINE#         790
  C:C8A8H         LINE#         791
  -------         ENDPROC       __DELAY5US
  -------         PROC          BATTERYDETECT
  -------         DO            
  D:0007H         SYMBOL        tmp
  X:0B5CH         SYMBOL        i
  -------         ENDDO         
  C:1EA9H         LINE#         796
  C:1EA9H         LINE#         797
  C:1EA9H         LINE#         800
  C:1EAEH         LINE#         801
  C:1EBAH         LINE#         802
  C:1EBAH         LINE#         803
  C:1EBDH         LINE#         804
  C:1EBFH         LINE#         806
  C:1EC2H         LINE#         808
  C:1EC6H         LINE#         809
  C:1EC6H         LINE#         810
  C:1ECCH         LINE#         812
  C:1EDFH         LINE#         813
  C:1EDFH         LINE#         814
  C:1EE2H         LINE#         815
  C:1EE2H         LINE#         816
  C:1EE5H         LINE#         817
  C:1EE7H         LINE#         819
  C:1EEBH         LINE#         821
  C:1EEDH         LINE#         822
  C:1EEDH         LINE#         823
  C:1EFFH         LINE#         824
  C:1EFFH         LINE#         825
  C:1EFFH         LINE#         826
  C:1F05H         LINE#         827
  C:1F08H         LINE#         829
  C:1F08H         LINE#         830
  C:1F0EH         LINE#         831
BL51 BANKED LINKER/LOCATER V6.22                                                      05/30/2019  12:42:35  PAGE 198


  C:1F11H         LINE#         833
  C:1F11H         LINE#         834
  C:1F17H         LINE#         835
  C:1F19H         LINE#         836
  C:1F19H         LINE#         838
  C:1F19H         LINE#         839
  C:1F19H         LINE#         841
  C:1F19H         LINE#         842
  C:1F1FH         LINE#         843
  C:1F1FH         LINE#         844
  C:1F24H         LINE#         845
  C:1F24H         LINE#         847
  C:1F24H         LINE#         848
  C:1F2AH         LINE#         850
  C:1F39H         LINE#         851
  C:1F39H         LINE#         852
  C:1F3CH         LINE#         853
  C:1F3CH         LINE#         854
  C:1F3FH         LINE#         855
  C:1F41H         LINE#         857
  C:1F45H         LINE#         859
  C:1F47H         LINE#         860
  C:1F47H         LINE#         861
  C:1F58H         LINE#         862
  C:1F58H         LINE#         863
  C:1F58H         LINE#         864
  C:1F5DH         LINE#         865
  C:1F5FH         LINE#         867
  C:1F5FH         LINE#         868
  C:1F65H         LINE#         869
  C:1F67H         LINE#         871
  C:1F67H         LINE#         872
  C:1F6DH         LINE#         873
  C:1F6FH         LINE#         875
  C:1F6FH         LINE#         876
  C:1F75H         LINE#         877
  C:1F77H         LINE#         878
  C:1F77H         LINE#         880
  C:1F77H         LINE#         881
  C:1F77H         LINE#         882
  C:1F7CH         LINE#         883
  C:1F7CH         LINE#         885
  C:1F7FH         LINE#         886
  C:1F7FH         LINE#         887
  C:1F86H         LINE#         888
  C:1F86H         LINE#         889
  C:1F8BH         LINE#         891
  C:1F8BH         LINE#         892
  C:1FAFH         LINE#         893
  C:1FAFH         LINE#         894
  C:1FC9H         LINE#         895
  C:1FC9H         LINE#         896
  C:1FC9H         LINE#         897
  C:1FC9H         LINE#         898
  C:1FC9H         LINE#         899
  C:1FCCH         LINE#         900
  C:1FD9H         LINE#         902
BL51 BANKED LINKER/LOCATER V6.22                                                      05/30/2019  12:42:35  PAGE 199


  C:1FF2H         LINE#         903
  C:1FF2H         LINE#         904
  C:1FF2H         LINE#         905
  -------         ENDPROC       BATTERYDETECT
  -------         PROC          RF_GETBATTERYRESULT
  C:CBE3H         LINE#         910
  C:CBE3H         LINE#         911
  C:CBE3H         LINE#         912
  C:CBE8H         LINE#         913
  -------         ENDPROC       RF_GETBATTERYRESULT
  -------         PROC          RF_GETRSSIRESULT
  C:CB85H         LINE#         918
  C:CB85H         LINE#         919
  C:CB85H         LINE#         920
  C:CB8DH         LINE#         921
  -------         ENDPROC       RF_GETRSSIRESULT
  -------         PROC          _RF_TIMER500MS
  D:0007H         SYMBOL        TimerEnable
  C:C006H         LINE#         926
  C:C006H         LINE#         927
  C:C006H         LINE#         928
  C:C00BH         LINE#         929
  C:C00BH         LINE#         930
  C:C00DH         LINE#         931
  C:C014H         LINE#         932
  C:C01AH         LINE#         933
  C:C01EH         LINE#         934
  C:C028H         LINE#         935
  C:C02CH         LINE#         936
  C:C036H         LINE#         938
  C:C039H         LINE#         939
  C:C03AH         LINE#         941
  C:C03AH         LINE#         942
  C:C03CH         LINE#         943
  C:C043H         LINE#         944
  C:C04CH         LINE#         945
  C:C050H         LINE#         946
  C:C050H         LINE#         947
  -------         ENDPROC       _RF_TIMER500MS
  -------         PROC          PARTIAL_INITRF
  -------         DO            
  D:0003H         SYMBOL        i
  X:0B3AH         SYMBOL        j
  X:0B3BH         SYMBOL        ReCal_counter
  X:0B3CH         SYMBOL        error_code
  -------         ENDDO         
  C:AE2EH         LINE#         952
  C:AE2EH         LINE#         953
  C:AE2EH         LINE#         956
  C:AE33H         LINE#         958
  C:AE38H         LINE#         959
  C:AE3DH         LINE#         961
  C:AE42H         LINE#         962
  C:AE42H         LINE#         963
  C:AE45H         LINE#         964
  C:AE45H         LINE#         965
  C:AE45H         LINE#         966
BL51 BANKED LINKER/LOCATER V6.22                                                      05/30/2019  12:42:35  PAGE 200


  C:AE48H         LINE#         968
  C:AE4AH         LINE#         969
  C:AE4AH         LINE#         970
  C:AE4AH         LINE#         971
  C:AE4AH         LINE#         972
  C:AE50H         LINE#         973
  C:AE52H         LINE#         974
  C:AE52H         LINE#         975
  C:AE52H         LINE#         976
  C:AE52H         LINE#         977
  C:AE58H         LINE#         978
  C:AE5AH         LINE#         979
  C:AE5AH         LINE#         980
  C:AE5AH         LINE#         981
  C:AE5AH         LINE#         982
  C:AE60H         LINE#         984
  C:AE66H         LINE#         985
  C:AE68H         LINE#         986
  C:AE68H         LINE#         987
  C:AE6DH         LINE#         988
  C:AE73H         LINE#         989
  C:AE78H         LINE#         991
  C:AE78H         LINE#         992
  C:AE78H         LINE#         994
  C:AE78H         LINE#         995
  C:AE78H         LINE#         997
  C:AE7FH         LINE#         998
  C:AE84H         LINE#         1000
  C:AE8AH         LINE#         1001
  C:AE8CH         LINE#         1002
  C:AE8CH         LINE#         1003
  C:AE91H         LINE#         1004
  C:AE97H         LINE#         1005
  C:AE9CH         LINE#         1007
  C:AEA2H         LINE#         1008
  C:AEA4H         LINE#         1009
  C:AEA4H         LINE#         1010
  C:AEA9H         LINE#         1011
  C:AEAFH         LINE#         1012
  C:AEB4H         LINE#         1014
  C:AEB4H         LINE#         1015
  C:AEB4H         LINE#         1016
  C:AEB4H         LINE#         1017
  C:AEB7H         LINE#         1019
  C:AEB7H         LINE#         1020
  C:AEB7H         LINE#         1021
  C:AEB7H         LINE#         1022
  C:AEBAH         LINE#         1024
  C:AEBFH         LINE#         1025
  C:AEC4H         LINE#         1027
  C:AECCH         LINE#         1028
  C:AED2H         LINE#         1029
  C:AEDEH         LINE#         1031
  C:AEE3H         LINE#         1032
  -------         ENDPROC       PARTIAL_INITRF
  -------         PROC          RF_GET_PARTIAL_INITRF_RESULT
  C:CBE9H         LINE#         1034
BL51 BANKED LINKER/LOCATER V6.22                                                      05/30/2019  12:42:35  PAGE 201


  C:CBE9H         LINE#         1035
  C:CBE9H         LINE#         1036
  C:CBEEH         LINE#         1037
  -------         ENDPROC       RF_GET_PARTIAL_INITRF_RESULT
  -------         ENDMOD        RFA8107

  -------         MODULE        OTA
  C:0000H         SYMBOL        _ICE_DUMMY_
  X:0F1BH         PUBLIC        g_TempBuf
  D:00E3H         PUBLIC        P3WUN
  C:04CBH         SYMBOL        EraseCKCode
  D:0080H         PUBLIC        P0
  D:0090H         PUBLIC        P1
  D:00A0H         PUBLIC        P2
  D:00B0H         PUBLIC        P3
  B:0020H.0       PUBLIC        OTA_FINISH_FLAG
  B:00A8H.7       PUBLIC        EA
  D:00A8H         PUBLIC        IE
  B:0020H.2       PUBLIC        OTA_RUN1ST_FLAG
  C:075EH         SYMBOL        _EntryData
  C:0400H         SYMBOL        OTA_KeepBonding
  D:0020H         PUBLIC        OTA_BitFlag0
  D:00EBH         PUBLIC        TA
  D:00B8H         PUBLIC        IP
  C:09A7H         PUBLIC        OTA_UpdataSpeed
  C:04B5H         SYMBOL        Reset4OTA
  B:0020H.5       PUBLIC        OTA_DATA_ERR_FLAG
  C:0AB2H         PUBLIC        OTA_Process
  X:0F07H         PUBLIC        g_ReceiveBuf
  B:0020H.1       PUBLIC        OTA_SPEED_FLAG
  D:0098H         PUBLIC        SCON
  D:0088H         PUBLIC        TCON
  B:0020H.4       PUBLIC        OTA_HIGH_SPEED_FLAG
  X:0F42H         PUBLIC        tmp_err_disconnect_cnt
  C:0A7EH         PUBLIC        _OTA_SetReceiveData
  X:0F41H         PUBLIC        g_OTAMinUpdateTimes
  X:0F02H         PUBLIC        g_OTAMaxUpdateTimes
  X:0F2DH         PUBLIC        g_OTA_RespBuf
  X:0F01H         PUBLIC        g_OTADataLen
  X:0F03H         PUBLIC        g_OTANextAddr
  X:0F2BH         PUBLIC        OTA_START_FLAG
  D:00E8H         PUBLIC        EIE
  X:0F00H         PUBLIC        g_OTAProcedure
  C:0987H         PUBLIC        OTA_Initialize
  X:0F2CH         PUBLIC        OTA_RECONNECT_FLAG
  D:00C8H         PUBLIC        T2CON
  C:05C3H         SYMBOL        _EntryCMD
  C:04F1H         SYMBOL        EraseArea
  D:008EH         PUBLIC        CKCON
  B:0020H.6       PUBLIC        OTA_ERR_STATUS_FLAG
  X:0F05H         PUBLIC        g_OTAReceiveAddr
  D:00D0H         PUBLIC        PSW
  D:00D3H         PUBLIC        P0WUN
  B:0020H.3       PUBLIC        OTA_LOOP_FLAG
  D:00DBH         PUBLIC        P1WUN
  D:00D8H         PUBLIC        WDCON
  D:00A3H         PUBLIC        P2WUN
BL51 BANKED LINKER/LOCATER V6.22                                                      05/30/2019  12:42:35  PAGE 202


  C:0DD5H         SYMBOL        Com00BF
  C:0DD5H         SYMBOL        L?0192
  C:0DE2H         SYMBOL        L?0193
  C:0E02H         SYMBOL        L?0194
  C:0E09H         SYMBOL        L?0195
  C:0E09H         SYMBOL        L?0196
  C:0E0CH         SYMBOL        L?0197
  C:0E15H         SYMBOL        L?0198
  C:0E19H         SYMBOL        L?0199
  C:0E2BH         SYMBOL        L?0200
  C:0E2CH         SYMBOL        L?0201
  C:0E43H         SYMBOL        L?0202
  C:0E49H         SYMBOL        L?0203
  C:0E58H         SYMBOL        L?0204
  C:0E82H         SYMBOL        L?0205
  C:0E8AH         SYMBOL        L?0206
  C:0E96H         SYMBOL        L?0207
  C:0E9FH         SYMBOL        L?0208
  C:0EA6H         SYMBOL        L?0209
  C:0EA9H         SYMBOL        L?0210
  C:0EB0H         SYMBOL        L?0211
  C:0EB0H         SYMBOL        L?0212
  C:0EBDH         SYMBOL        L?0213
  C:0EBDH         SYMBOL        L?0214
  C:0EC5H         SYMBOL        L?0215
  C:0EC5H         SYMBOL        L?0216
  C:0ECBH         SYMBOL        L?0217
  C:0ECBH         SYMBOL        L?0218
  C:0ED3H         SYMBOL        L?0219
  C:0ED3H         SYMBOL        L?0220
  C:0EDCH         SYMBOL        L?0221
  C:0EECH         SYMBOL        L?0222
  C:0EFBH         SYMBOL        L?0223
  C:0F09H         SYMBOL        L?0224
  C:0F0BH         SYMBOL        L?0225
  C:0F13H         SYMBOL        L?0226
  C:0F13H         SYMBOL        L?0227
  C:0F19H         SYMBOL        L?0228
  C:0F25H         SYMBOL        L?0230
  C:0F26H         SYMBOL        L?0231
  C:0F2DH         SYMBOL        L?0232
  -------         PROC          COM00BF
  -------         ENDPROC       COM00BF
  -------         PROC          OTA_KEEPBONDING
  -------         DO            
  X:0B5DH         SYMBOL        i
  D:0005H         SYMBOL        j
  D:0017H         SYMBOL        BackupEA
  -------         ENDDO         
  C:0400H         LINE#         139
  C:0400H         LINE#         140
  C:0400H         LINE#         144
  C:0406H         LINE#         145
  C:0408H         LINE#         147
  C:040DH         LINE#         149
  C:0412H         LINE#         151
  C:0421H         LINE#         152
BL51 BANKED LINKER/LOCATER V6.22                                                      05/30/2019  12:42:35  PAGE 203


  C:0436H         LINE#         154
  C:043BH         LINE#         156
  C:0440H         LINE#         157
  C:0440H         LINE#         158
  C:0442H         LINE#         159
  C:0442H         LINE#         160
  C:046CH         LINE#         161
  C:0471H         LINE#         162
  C:0476H         LINE#         163
  C:0498H         LINE#         164
  C:049DH         LINE#         165
  C:04A9H         LINE#         167
  C:04AEH         LINE#         169
  C:04B4H         LINE#         170
  -------         ENDPROC       OTA_KEEPBONDING
  -------         PROC          RESET4OTA
  C:04B5H         LINE#         172
  C:04B5H         LINE#         173
  C:04B5H         LINE#         174
  C:04BBH         LINE#         175
  C:04BEH         LINE#         176
  C:04C0H         LINE#         177
  C:04C3H         LINE#         178
  C:04C6H         LINE#         179
  C:04C9H         LINE#         180
  -------         ENDPROC       RESET4OTA
  -------         PROC          ERASECKCODE
  -------         DO            
  D:0018H         SYMBOL        BackupEA
  -------         ENDDO         
  C:04CBH         LINE#         183
  C:04CBH         LINE#         184
  C:04CBH         LINE#         185
  C:04D1H         LINE#         187
  C:04D7H         LINE#         188
  C:04D9H         LINE#         189
  C:04DEH         LINE#         190
  C:04E5H         LINE#         191
  C:04EAH         LINE#         192
  C:04F0H         LINE#         193
  -------         ENDPROC       ERASECKCODE
  -------         PROC          ERASEAREA
  -------         DO            
  D:0019H         SYMBOL        BackupEA
  X:05FDH         SYMBOL        bank
  X:05FEH         SYMBOL        i
  X:0600H         SYMBOL        compare
  -------         ENDDO         
  C:04F1H         LINE#         195
  C:04F1H         LINE#         196
  C:04F1H         LINE#         197
  C:04F7H         LINE#         203
  C:04FDH         LINE#         204
  C:04FFH         LINE#         207
  C:050EH         LINE#         209
  C:0513H         LINE#         210
  C:0519H         LINE#         211
BL51 BANKED LINKER/LOCATER V6.22                                                      05/30/2019  12:42:35  PAGE 204


  C:051DH         LINE#         213
  C:051DH         LINE#         214
  C:051DH         LINE#         215
  C:0525H         LINE#         217
  C:0525H         LINE#         218
  C:0525H         LINE#         219
  C:0531H         LINE#         220
  C:0531H         LINE#         221
  C:0538H         LINE#         222
  C:0538H         LINE#         223
  C:053AH         LINE#         224
  C:053AH         LINE#         226
  C:053AH         LINE#         227
  C:0540H         LINE#         228
  C:0545H         LINE#         229
  C:054DH         LINE#         230
  C:054DH         LINE#         231
  C:054FH         LINE#         233
  C:054FH         LINE#         234
  C:0556H         LINE#         235
  C:0556H         LINE#         236
  C:0560H         LINE#         237
  C:0560H         LINE#         238
  C:0561H         LINE#         239
  C:0563H         LINE#         240
  C:0563H         LINE#         241
  C:0563H         LINE#         242
  C:0563H         LINE#         244
  C:0583H         LINE#         245
  C:0599H         LINE#         246
  C:0599H         LINE#         247
  C:05A4H         LINE#         248
  C:05A4H         LINE#         250
  C:05AFH         LINE#         251
  C:05B2H         LINE#         253
  C:05B7H         LINE#         254
  C:05B7H         LINE#         255
  C:05B7H         LINE#         256
  C:05BCH         LINE#         257
  C:05C2H         LINE#         305
  -------         ENDPROC       ERASEAREA
  -------         PROC          _ENTRYCMD
  X:0A2DH         SYMBOL        pu8Cmd
  D:0005H         SYMBOL        u8CmdLen
  X:0A31H         SYMBOL        pu8Resp
  X:0A34H         SYMBOL        pu8RespLen
  -------         DO            
  X:0A37H         SYMBOL        tmp
  X:0A38H         SYMBOL        i
  -------         ENDDO         
  C:05C3H         LINE#         307
  C:05C9H         LINE#         308
  C:05C9H         LINE#         309
  C:05CEH         LINE#         312
  C:05D6H         LINE#         313
  C:05D6H         LINE#         314
  C:0604H         LINE#         315
BL51 BANKED LINKER/LOCATER V6.22                                                      05/30/2019  12:42:35  PAGE 205


  C:0604H         LINE#         316
  C:0604H         LINE#         317
  C:060BH         LINE#         318
  C:060DH         LINE#         319
  C:060DH         LINE#         320
  C:060FH         LINE#         322
  C:060FH         LINE#         323
  C:0616H         LINE#         324
  C:0616H         LINE#         325
  C:0618H         LINE#         327
  C:0618H         LINE#         328
  C:061FH         LINE#         329
  C:0622H         LINE#         330
  C:0624H         LINE#         332
  C:0624H         LINE#         333
  C:062AH         LINE#         334
  C:062CH         LINE#         336
  C:062CH         LINE#         337
  C:0632H         LINE#         338
  C:0634H         LINE#         340
  C:0634H         LINE#         341
  C:0637H         LINE#         342
  C:0639H         LINE#         344
  C:0639H         LINE#         345
  C:063BH         LINE#         346
  C:0640H         LINE#         347
  C:0642H         LINE#         349
  C:0642H         LINE#         350
  C:0648H         LINE#         351
  C:064AH         LINE#         353
  C:064AH         LINE#         354
  C:064FH         LINE#         355
  C:0651H         LINE#         357
  C:0651H         LINE#         358
  C:0654H         LINE#         359
  C:0654H         LINE#         360
  C:0656H         LINE#         361
  C:065CH         LINE#         362
  C:065CH         LINE#         363
  C:065EH         LINE#         365
  C:065EH         LINE#         366
  C:0661H         LINE#         367
  C:0661H         LINE#         368
  C:0663H         LINE#         369
  C:0665H         LINE#         376
  C:0665H         LINE#         377
  C:0667H         LINE#         378
  C:0669H         LINE#         380
  C:0669H         LINE#         381
  C:066FH         LINE#         382
  C:066FH         LINE#         383
  C:066FH         LINE#         385
  C:0677H         LINE#         386
  C:0677H         LINE#         387
  C:0683H         LINE#         389
  C:0690H         LINE#         390
  C:0690H         LINE#         391
BL51 BANKED LINKER/LOCATER V6.22                                                      05/30/2019  12:42:35  PAGE 206


  C:06BFH         LINE#         392
  C:06C7H         LINE#         393
  C:06CFH         LINE#         394
  C:06D7H         LINE#         395
  C:06DFH         LINE#         396
  C:06E1H         LINE#         398
  C:06E1H         LINE#         399
  C:06EAH         LINE#         400
  C:06EAH         LINE#         401
  C:06F4H         LINE#         402
  C:06F4H         LINE#         403
  C:06F9H         LINE#         404
  C:06FBH         LINE#         406
  C:06FBH         LINE#         407
  C:0703H         LINE#         408
  C:0703H         LINE#         409
  C:0706H         LINE#         410
  C:0708H         LINE#         411
  C:070CH         LINE#         412
  C:070CH         LINE#         413
  C:0714H         LINE#         414
  C:0714H         LINE#         415
  C:0716H         LINE#         416
  C:0720H         LINE#         417
  C:0720H         LINE#         418
  C:0725H         LINE#         419
  C:0725H         LINE#         420
  C:0727H         LINE#         422
  C:0727H         LINE#         423
  C:072FH         LINE#         424
  C:0737H         LINE#         425
  C:0737H         LINE#         426
  C:0742H         LINE#         427
  C:0742H         LINE#         429
  C:074AH         LINE#         430
  C:0758H         LINE#         432
  C:075BH         LINE#         433
  C:075BH         LINE#         434
  C:075DH         LINE#         435
  -------         ENDPROC       _ENTRYCMD
  -------         PROC          _ENTRYDATA
  X:0A39H         SYMBOL        pu8Data
  D:0005H         SYMBOL        u8DataLen
  X:0A3CH         SYMBOL        pu8Resp
  X:0A3EH         SYMBOL        pu8RespLen
  -------         DO            
  D:001AH         SYMBOL        BackupEA
  D:0007H         SYMBOL        tmp
  X:0A41H         SYMBOL        Addr
  -------         ENDDO         
  C:075EH         LINE#         437
  C:076EH         LINE#         438
  C:076EH         LINE#         443
  C:0780H         LINE#         444
  C:0780H         LINE#         445
  C:07CDH         LINE#         446
  C:07D0H         LINE#         448
BL51 BANKED LINKER/LOCATER V6.22                                                      05/30/2019  12:42:35  PAGE 207


  C:07E4H         LINE#         449
  C:07E4H         LINE#         450
  C:07EFH         LINE#         451
  C:07EFH         LINE#         452
  C:07F1H         LINE#         453
  C:0808H         LINE#         454
  C:0808H         LINE#         455
  C:0814H         LINE#         456
  C:0816H         LINE#         457
  C:0819H         LINE#         459
  C:0819H         LINE#         460
  C:0821H         LINE#         461
  C:0821H         LINE#         462
  C:0824H         LINE#         463
  C:082FH         LINE#         464
  C:082FH         LINE#         466
  C:0835H         LINE#         467
  C:0837H         LINE#         469
  C:083CH         LINE#         471
  C:084BH         LINE#         472
  C:084BH         LINE#         473
  C:0850H         LINE#         474
  C:0866H         LINE#         475
  C:0868H         LINE#         477
  C:086DH         LINE#         479
  C:0891H         LINE#         480
  C:08ABH         LINE#         481
  C:08B0H         LINE#         483
  C:08B5H         LINE#         485
  C:08BBH         LINE#         487
  C:08E9H         LINE#         488
  C:08E9H         LINE#         489
  C:08ECH         LINE#         490
  C:08ECH         LINE#         491
  C:08F9H         LINE#         492
  C:08FBH         LINE#         494
  C:0903H         LINE#         495
  C:0905H         LINE#         497
  C:0905H         LINE#         498
  C:0911H         LINE#         499
  C:0911H         LINE#         501
  C:0922H         LINE#         505
  C:0933H         LINE#         506
  C:0933H         LINE#         507
  C:093FH         LINE#         508
  C:093FH         LINE#         509
  C:0940H         LINE#         510
  C:0942H         LINE#         512
  C:0942H         LINE#         513
  C:0942H         LINE#         514
  C:0942H         LINE#         515
  C:0942H         LINE#         516
  C:0942H         LINE#         518
  C:0944H         LINE#         520
  C:0944H         LINE#         521
  C:0947H         LINE#         522
  C:094AH         LINE#         523
BL51 BANKED LINKER/LOCATER V6.22                                                      05/30/2019  12:42:35  PAGE 208


  C:094AH         LINE#         524
  C:094AH         LINE#         526
  C:095DH         LINE#         527
  C:0969H         LINE#         528
  C:0976H         LINE#         529
  C:0981H         LINE#         530
  C:0984H         LINE#         531
  C:0984H         LINE#         532
  C:0986H         LINE#         533
  -------         ENDPROC       _ENTRYDATA
  -------         PROC          OTA_INITIALIZE
  C:0987H         LINE#         549
  C:0987H         LINE#         550
  C:0987H         LINE#         551
  C:0987H         LINE#         552
  C:0987H         LINE#         553
  C:0987H         LINE#         554
  C:0987H         LINE#         555
  C:098AH         LINE#         556
  C:098DH         LINE#         557
  C:0991H         LINE#         558
  C:0995H         LINE#         559
  C:0997H         LINE#         560
  C:099DH         LINE#         562
  C:09A1H         LINE#         563
  C:09A1H         LINE#         564
  -------         ENDPROC       OTA_INITIALIZE
  -------         PROC          OTA_UPDATASPEED
  -------         DO            
  X:0B5EH         SYMBOL        Temp
  D:0004H         SYMBOL        ptr
  D:0006H         SYMBOL        tmpInterval
  -------         ENDDO         
  C:09A7H         LINE#         578
  C:09A7H         LINE#         579
  C:09A7H         LINE#         584
  C:09ADH         LINE#         585
  C:09ADH         LINE#         586
  C:09B3H         LINE#         587
  C:09BBH         LINE#         588
  C:09C7H         LINE#         589
  C:09C7H         LINE#         590
  C:09E1H         LINE#         591
  C:09E1H         LINE#         592
  C:09E6H         LINE#         594
  C:09F0H         LINE#         595
  C:09F0H         LINE#         596
  C:09F9H         LINE#         597
  C:09F9H         LINE#         598
  C:09F9H         LINE#         599
  C:09FBH         LINE#         601
  C:09FBH         LINE#         602
  C:0A05H         LINE#         603
  C:0A05H         LINE#         604
  C:0A05H         LINE#         605
  C:0A05H         LINE#         607
  C:0A14H         LINE#         608
BL51 BANKED LINKER/LOCATER V6.22                                                      05/30/2019  12:42:35  PAGE 209


  C:0A23H         LINE#         609
  C:0A34H         LINE#         610
  C:0A34H         LINE#         611
  C:0A34H         LINE#         612
  C:0A36H         LINE#         613
  C:0A36H         LINE#         614
  C:0A40H         LINE#         615
  C:0A40H         LINE#         616
  C:0A4AH         LINE#         617
  C:0A4CH         LINE#         619
  C:0A4CH         LINE#         620
  C:0A5AH         LINE#         621
  C:0A5AH         LINE#         623
  C:0A61H         LINE#         624
  C:0A61H         LINE#         625
  C:0A63H         LINE#         626
  C:0A66H         LINE#         627
  C:0A66H         LINE#         629
  C:0A66H         LINE#         630
  C:0A6DH         LINE#         631
  C:0A70H         LINE#         632
  C:0A70H         LINE#         633
  C:0A70H         LINE#         634
  C:0A76H         LINE#         635
  C:0A76H         LINE#         636
  C:0A78H         LINE#         637
  C:0A7BH         LINE#         638
  C:0A7BH         LINE#         641
  C:0A7BH         LINE#         643
  C:0A7DH         LINE#         644
  -------         ENDPROC       OTA_UPDATASPEED
  -------         PROC          _OTA_SETRECEIVEDATA
  D:0006H         SYMBOL        u16BufAddr
  D:0005H         SYMBOL        u8Len
  C:0A7EH         LINE#         653
  C:0A7EH         LINE#         654
  C:0A7EH         LINE#         656
  C:0A9CH         LINE#         657
  C:0A9CH         LINE#         658
  C:0AA4H         LINE#         659
  C:0AA9H         LINE#         660
  C:0AAAH         LINE#         662
  C:0AAAH         LINE#         663
  C:0AADH         LINE#         664
  C:0AB1H         LINE#         665
  C:0AB1H         LINE#         666
  -------         ENDPROC       _OTA_SETRECEIVEDATA
  C:0DC9H         SYMBOL        L?0229
  -------         PROC          OTA_PROCESS
  -------         DO            
  X:09F5H         SYMBOL        Temp
  X:09F6H         SYMBOL        ADV_InitStructure
  X:0A00H         SYMBOL        UpdateOTASpeed
  X:0A01H         SYMBOL        DataLen
  X:0A02H         SYMBOL        ptrChar
  B:0029H.5       SYMBOL        ADV_ONE_RUN_FLAG
  -------         ENDDO         
BL51 BANKED LINKER/LOCATER V6.22                                                      05/30/2019  12:42:35  PAGE 210


  C:0AB2H         LINE#         674
  C:0AB2H         LINE#         675
  C:0AB2H         LINE#         680
  C:0AB9H         LINE#         683
  C:0AC5H         LINE#         684
  C:0AC5H         LINE#         685
  C:0ACBH         LINE#         686
  C:0ACBH         LINE#         687
  C:0ACDH         LINE#         689
  C:0AD1H         LINE#         690
  C:0AD1H         LINE#         691
  C:0AD1H         LINE#         692
  C:0AD1H         LINE#         693
  C:0AD1H         LINE#         694
  C:0AD1H         LINE#         695
  C:0AD1H         LINE#         696
  C:0AD1H         LINE#         697
  C:0AD4H         LINE#         698
  C:0AD9H         LINE#         699
  C:0AE2H         LINE#         700
  C:0AE2H         LINE#         702
  C:0AE2H         LINE#         703
  C:0AE2H         LINE#         704
  C:0AE8H         LINE#         705
  C:0AE8H         LINE#         706
  C:0AEBH         LINE#         707
  C:0AEBH         LINE#         708
  C:0AEDH         LINE#         710
  C:0AF0H         LINE#         711
  C:0AF3H         LINE#         712
  C:0AF5H         LINE#         714
  C:0AF8H         LINE#         715
  C:0AFAH         LINE#         717
  C:0AFDH         LINE#         718
  C:0B00H         LINE#         719
  C:0B03H         LINE#         720
  C:0B06H         LINE#         722
  C:0B0AH         LINE#         724
  C:0B0FH         LINE#         725
  C:0B13H         LINE#         727
  C:0B13H         LINE#         728
  C:0B13H         LINE#         729
  C:0B13H         LINE#         730
  C:0B13H         LINE#         731
  C:0B16H         LINE#         732
  C:0B16H         LINE#         734
  C:0B16H         LINE#         735
  C:0B16H         LINE#         736
  C:0B19H         LINE#         737
  C:0B19H         LINE#         738
  C:0B19H         LINE#         739
  C:0B19H         LINE#         740
  C:0B19H         LINE#         741
  C:0B19H         LINE#         743
  C:0B19H         LINE#         744
  C:0B19H         LINE#         745
  C:0B1FH         LINE#         747
BL51 BANKED LINKER/LOCATER V6.22                                                      05/30/2019  12:42:35  PAGE 211


  C:0B22H         LINE#         749
  C:0B22H         LINE#         750
  C:0B22H         LINE#         751
  C:0B22H         LINE#         752
  C:0B22H         LINE#         753
  C:0B22H         LINE#         754
  C:0B22H         LINE#         755
  C:0B25H         LINE#         756
  C:0B2BH         LINE#         757
  C:0B33H         LINE#         759
  C:0B35H         LINE#         760
  C:0B38H         LINE#         762
  C:0B38H         LINE#         763
  C:0B3BH         LINE#         764
  C:0B3BH         LINE#         765
  C:0B3EH         LINE#         766
  C:0B41H         LINE#         767
  C:0B41H         LINE#         768
  C:0B43H         LINE#         770
  C:0B43H         LINE#         771
  C:0B46H         LINE#         772
  C:0B49H         LINE#         773
  C:0B49H         LINE#         774
  C:0B49H         LINE#         775
  C:0B4CH         LINE#         776
  C:0B54H         LINE#         777
  C:0B54H         LINE#         778
  C:0B5AH         LINE#         780
  C:0B5FH         LINE#         781
  C:0B5FH         LINE#         782
  C:0B5FH         LINE#         783
  C:0B5FH         LINE#         784
  C:0B62H         LINE#         785
  C:0B6DH         LINE#         786
  C:0B6DH         LINE#         787
  C:0B73H         LINE#         788
  C:0B73H         LINE#         789
  C:0B7BH         LINE#         791
  C:0B85H         LINE#         792
  C:0B8AH         LINE#         793
  C:0B8AH         LINE#         795
  C:0B90H         LINE#         796
  C:0B90H         LINE#         797
  C:0B9EH         LINE#         798
  C:0BA6H         LINE#         800
  C:0BB2H         LINE#         801
  C:0BB2H         LINE#         802
  C:0BB4H         LINE#         803
  C:0BB8H         LINE#         805
  C:0BCCH         LINE#         806
  C:0BCCH         LINE#         807
  C:0BCFH         LINE#         808
  C:0BEBH         LINE#         809
  C:0BEBH         LINE#         810
  C:0BEEH         LINE#         811
  C:0BEEH         LINE#         812
  C:0BF9H         LINE#         813
BL51 BANKED LINKER/LOCATER V6.22                                                      05/30/2019  12:42:35  PAGE 212


  C:0BF9H         LINE#         814
  C:0C00H         LINE#         815
  C:0C00H         LINE#         816
  C:0C06H         LINE#         817
  C:0C06H         LINE#         818
  C:0C06H         LINE#         819
  C:0C08H         LINE#         821
  C:0C08H         LINE#         822
  C:0C0FH         LINE#         823
  C:0C0FH         LINE#         824
  C:0C15H         LINE#         825
  C:0C15H         LINE#         826
  C:0C24H         LINE#         827
  C:0C24H         LINE#         828
  C:0C24H         LINE#         829
  C:0C24H         LINE#         830
  C:0C27H         LINE#         831
  C:0C27H         LINE#         832
  C:0C27H         LINE#         833
  C:0C29H         LINE#         834
  C:0C2CH         LINE#         835
  C:0C3AH         LINE#         836
  C:0C3AH         LINE#         837
  C:0C3CH         LINE#         838
  C:0C40H         LINE#         840
  C:0C52H         LINE#         841
  C:0C52H         LINE#         842
  C:0C59H         LINE#         843
  C:0C75H         LINE#         845
  C:0C75H         LINE#         846
  C:0C7EH         LINE#         847
  C:0C81H         LINE#         848
  C:0C81H         LINE#         849
  C:0C81H         LINE#         850
  C:0C83H         LINE#         851
  C:0C83H         LINE#         852
  C:0C85H         LINE#         853
  C:0C8BH         LINE#         854
  C:0C8BH         LINE#         855
  C:0C8BH         LINE#         856
  C:0C9CH         LINE#         857
  C:0C9CH         LINE#         858
  C:0C9FH         LINE#         859
  C:0C9FH         LINE#         860
  C:0C9FH         LINE#         862
  C:0CAAH         LINE#         863
  C:0CAAH         LINE#         864
  C:0CADH         LINE#         865
  C:0CADH         LINE#         866
  C:0CADH         LINE#         867
  C:0CB0H         LINE#         868
  C:0CB0H         LINE#         870
  C:0CB0H         LINE#         871
  C:0CB3H         LINE#         872
  C:0CB3H         LINE#         873
  C:0CB6H         LINE#         874
  C:0CB9H         LINE#         875
BL51 BANKED LINKER/LOCATER V6.22                                                      05/30/2019  12:42:35  PAGE 213


  C:0CB9H         LINE#         876
  C:0CBBH         LINE#         877
  C:0CC1H         LINE#         878
  C:0CC1H         LINE#         879
  C:0CC4H         LINE#         880
  C:0CC7H         LINE#         881
  C:0CC7H         LINE#         882
  C:0CCDH         LINE#         883
  C:0CCDH         LINE#         884
  C:0CCDH         LINE#         885
  C:0CCDH         LINE#         886
  C:0CCDH         LINE#         887
  C:0CCDH         LINE#         888
  C:0CD0H         LINE#         889
  C:0CD0H         LINE#         891
  C:0CD0H         LINE#         892
  C:0CD0H         LINE#         893
  C:0CD3H         LINE#         894
  C:0CD5H         LINE#         895
  C:0CD5H         LINE#         896
  C:0CD5H         LINE#         897
  C:0CD5H         LINE#         898
  C:0CD5H         LINE#         899
  C:0CD5H         LINE#         901
  C:0CD5H         LINE#         902
  C:0CD5H         LINE#         903
  C:0CDBH         LINE#         904
  C:0CDBH         LINE#         907
  C:0CDBH         LINE#         908
  C:0CDBH         LINE#         910
  C:0CDBH         LINE#         911
  C:0CDDH         LINE#         913
  C:0CEFH         LINE#         914
  C:0CEFH         LINE#         915
  C:0CF1H         LINE#         916
  C:0CF4H         LINE#         917
  C:0D14H         LINE#         918
  C:0D14H         LINE#         919
  C:0D17H         LINE#         920
  C:0D17H         LINE#         921
  C:0D22H         LINE#         922
  C:0D22H         LINE#         923
  C:0D29H         LINE#         924
  C:0D29H         LINE#         925
  C:0D2FH         LINE#         926
  C:0D2FH         LINE#         927
  C:0D2FH         LINE#         928
  C:0D31H         LINE#         930
  C:0D31H         LINE#         931
  C:0D38H         LINE#         932
  C:0D38H         LINE#         933
  C:0D3EH         LINE#         934
  C:0D3EH         LINE#         935
  C:0D4DH         LINE#         936
  C:0D4DH         LINE#         937
  C:0D4DH         LINE#         938
  C:0D4DH         LINE#         939
BL51 BANKED LINKER/LOCATER V6.22                                                      05/30/2019  12:42:35  PAGE 214


  C:0D50H         LINE#         940
  C:0D50H         LINE#         941
  C:0D52H         LINE#         942
  C:0D53H         LINE#         943
  C:0D65H         LINE#         944
  C:0D65H         LINE#         945
  C:0D67H         LINE#         946
  C:0D7DH         LINE#         947
  C:0D99H         LINE#         949
  C:0D99H         LINE#         950
  C:0DA2H         LINE#         951
  C:0DA5H         LINE#         952
  C:0DA5H         LINE#         953
  C:0DA7H         LINE#         954
  C:0DA8H         LINE#         955
  C:0DB1H         LINE#         956
  C:0DB1H         LINE#         957
  C:0DB1H         LINE#         958
  C:0DC2H         LINE#         959
  C:0DC2H         LINE#         960
  C:0DC5H         LINE#         961
  C:0DC5H         LINE#         963
  C:0DC8H         LINE#         964
  C:0DC8H         LINE#         965
  C:0DC8H         LINE#         966
  -------         ENDPROC       OTA_PROCESS
  -------         ENDMOD        OTA

  -------         MODULE        IAP
  C:0000H         SYMBOL        _ICE_DUMMY_
  D:0080H         PUBLIC        P0
  D:0090H         PUBLIC        P1
  D:00A0H         PUBLIC        P2
  D:00B0H         PUBLIC        P3
  B:00A8H.7       PUBLIC        EA
  D:00A8H         PUBLIC        IE
  D:00EBH         PUBLIC        TA
  C:2004H         PUBLIC        Flash_Release
  D:00B8H         PUBLIC        IP
  C:2000H         PUBLIC        Flash_Initial
  D:009DH         PUBLIC        PROG_ID
  D:009AH         PUBLIC        FLASHCTRL
  C:204EH         PUBLIC        _IAP_Erase
  C:2036H         PUBLIC        _IAP_BankSwitch
  D:0087H         PUBLIC        PCON
  D:009BH         PUBLIC        TERASE_ID
  D:0098H         PUBLIC        SCON
  D:0088H         PUBLIC        TCON
  C:20D9H         PUBLIC        _IAP_ReadData
  D:0094H         PUBLIC        CODEBANK
  D:00BAH         PUBLIC        RSFLAG
  C:2111H         PUBLIC        _IAP_WriteData
  C:203DH         PUBLIC        _IAP_Init
  D:00E8H         PUBLIC        EIE
  C:202FH         PUBLIC        IAP_Initialize
  C:5000H         PUBLIC        _Erase_Start
  D:00C8H         PUBLIC        T2CON
BL51 BANKED LINKER/LOCATER V6.22                                                      05/30/2019  12:42:35  PAGE 215


  C:509FH         PUBLIC        _WriteFlash_Start
  C:202BH         PUBLIC        PWE_ENABLE
  C:2008H         PUBLIC        Flash_Protect_Battery
  D:00D0H         PUBLIC        PSW
  D:00D8H         PUBLIC        WDCON
  -------         PROC          FLASH_INITIAL
  C:2000H         LINE#         54
  C:2000H         LINE#         55
  C:2000H         LINE#         56
  C:2003H         LINE#         57
  -------         ENDPROC       FLASH_INITIAL
  -------         PROC          FLASH_RELEASE
  C:2004H         LINE#         59
  C:2004H         LINE#         60
  C:2004H         LINE#         61
  C:2007H         LINE#         62
  -------         ENDPROC       FLASH_RELEASE
  -------         PROC          FLASH_PROTECT_BATTERY
  -------         DO            
  D:0007H         SYMBOL        tmp
  -------         ENDDO         
  C:2008H         LINE#         64
  C:2008H         LINE#         65
  C:2008H         LINE#         68
  C:200EH         LINE#         69
  C:201AH         LINE#         70
  C:201AH         LINE#         71
  C:2021H         LINE#         72
  C:2023H         LINE#         74
  C:202AH         LINE#         76
  C:202AH         LINE#         77
  -------         ENDPROC       FLASH_PROTECT_BATTERY
  -------         PROC          PWE_ENABLE
  C:202BH         LINE#         79
  C:202BH         LINE#         80
  C:202BH         LINE#         81
  C:202EH         LINE#         82
  -------         ENDPROC       PWE_ENABLE
  -------         PROC          _ERASE_START
  D:0004H         SYMBOL        u16Address
  -------         DO            
  I:002EH         SYMBOL        ptr
  D:001BH         SYMBOL        BackCODEBANK
  -------         ENDDO         
  C:5000H         LINE#         84
  C:5006H         LINE#         85
  C:5006H         LINE#         87
  C:5009H         LINE#         89
  C:501FH         LINE#         90
  C:501FH         LINE#         91
  C:5022H         LINE#         93
  C:5025H         LINE#         95
  C:5033H         LINE#         96
  C:5033H         LINE#         97
  C:5036H         LINE#         99
  C:503AH         LINE#         100
  C:503AH         LINE#         101
BL51 BANKED LINKER/LOCATER V6.22                                                      05/30/2019  12:42:35  PAGE 216


  C:5040H         LINE#         102
  C:5040H         LINE#         103
  C:5047H         LINE#         105
  C:504BH         LINE#         107
  C:504BH         LINE#         108
  C:504BH         LINE#         109
  C:504DH         LINE#         111
  C:504DH         LINE#         112
  C:5080H         LINE#         113
  C:5080H         LINE#         114
  C:508DH         LINE#         116
  C:5093H         LINE#         118
  C:5096H         LINE#         119
  C:5096H         LINE#         120
  C:5096H         LINE#         121
  C:5098H         LINE#         123
  C:5098H         LINE#         124
  C:509BH         LINE#         125
  C:509BH         LINE#         126
  C:509BH         LINE#         128
  C:509EH         LINE#         129
  -------         ENDPROC       _ERASE_START
  -------         PROC          _WRITEFLASH_START
  X:0A80H         SYMBOL        u16Address
  D:0001H         SYMBOL        pu8Buf
  X:0A85H         SYMBOL        u16Length
  -------         DO            
  I:002AH         SYMBOL        ptr
  I:002CH         SYMBOL        buf_ptr
  D:0008H         SYMBOL        len
  D:000AH         SYMBOL        BackCODEBANK
  -------         ENDDO         
  C:509FH         LINE#         131
  C:50A7H         LINE#         132
  C:50A7H         LINE#         135
  C:50B1H         LINE#         136
  C:50B4H         LINE#         138
  C:50B7H         LINE#         140
  C:50D0H         LINE#         141
  C:50D0H         LINE#         142
  C:50D3H         LINE#         144
  C:50D6H         LINE#         146
  C:50EAH         LINE#         147
  C:50EAH         LINE#         148
  C:50EDH         LINE#         150
  C:50F1H         LINE#         151
  C:50F1H         LINE#         152
  C:5102H         LINE#         153
  C:5102H         LINE#         154
  C:5109H         LINE#         155
  C:5112H         LINE#         157
  C:511FH         LINE#         158
  C:511FH         LINE#         159
  C:5137H         LINE#         160
  C:513DH         LINE#         161
  C:5145H         LINE#         162
  C:5147H         LINE#         164
BL51 BANKED LINKER/LOCATER V6.22                                                      05/30/2019  12:42:35  PAGE 217


  C:5147H         LINE#         165
  C:5147H         LINE#         166
  C:5149H         LINE#         168
  C:5149H         LINE#         169
  C:516FH         LINE#         170
  C:516FH         LINE#         171
  C:5176H         LINE#         172
  C:517FH         LINE#         174
  C:518CH         LINE#         175
  C:518CH         LINE#         176
  C:51A4H         LINE#         177
  C:51AAH         LINE#         178
  C:51B2H         LINE#         179
  C:51B4H         LINE#         181
  C:51B7H         LINE#         182
  C:51B7H         LINE#         183
  C:51B7H         LINE#         184
  C:51B9H         LINE#         186
  C:51B9H         LINE#         187
  C:51BCH         LINE#         188
  C:51BCH         LINE#         189
  C:51BCH         LINE#         191
  C:51BFH         LINE#         192
  -------         ENDPROC       _WRITEFLASH_START
  -------         PROC          IAP_INITIALIZE
  C:202FH         LINE#         211
  C:202FH         LINE#         212
  C:202FH         LINE#         214
  C:2032H         LINE#         215
  C:2035H         LINE#         216
  -------         ENDPROC       IAP_INITIALIZE
  -------         PROC          _IAP_BANKSWITCH
  D:0007H         SYMBOL        u8Bank
  C:2036H         LINE#         224
  C:2036H         LINE#         225
  C:2036H         LINE#         226
  C:2039H         LINE#         227
  C:203AH         LINE#         229
  C:203CH         LINE#         230
  -------         ENDPROC       _IAP_BANKSWITCH
  -------         PROC          _IAP_INIT
  D:0007H         SYMBOL        teType
  C:203DH         LINE#         238
  C:203DH         LINE#         239
  C:203DH         LINE#         240
  C:2040H         LINE#         241
  C:2040H         LINE#         242
  C:2043H         LINE#         243
  C:2046H         LINE#         244
  C:2047H         LINE#         246
  C:2047H         LINE#         247
  C:204AH         LINE#         248
  C:204DH         LINE#         249
  C:204DH         LINE#         250
  -------         ENDPROC       _IAP_INIT
  -------         PROC          _IAP_ERASE
  D:0004H         SYMBOL        u16Address
BL51 BANKED LINKER/LOCATER V6.22                                                      05/30/2019  12:42:35  PAGE 218


  -------         DO            
  D:001CH         SYMBOL        BackupEA
  -------         ENDDO         
  C:204EH         LINE#         258
  C:2054H         LINE#         259
  C:2054H         LINE#         260
  C:205AH         LINE#         262
  C:205CH         LINE#         264
  C:205FH         LINE#         266
  C:2062H         LINE#         267
  C:2065H         LINE#         268
  C:2068H         LINE#         270
  C:2073H         LINE#         271
  C:2073H         LINE#         273
  C:2077H         LINE#         274
  C:2077H         LINE#         275
  C:207AH         LINE#         276
  C:207DH         LINE#         277
  C:2080H         LINE#         278
  C:2082H         LINE#         280
  C:2082H         LINE#         281
  C:2085H         LINE#         282
  C:2088H         LINE#         283
  C:208BH         LINE#         284
  C:208BH         LINE#         286
  C:2093H         LINE#         287
  C:2093H         LINE#         288
  C:209BH         LINE#         289
  C:209BH         LINE#         290
  C:20A1H         LINE#         291
  C:20A1H         LINE#         292
  C:20A7H         LINE#         293
  C:20A7H         LINE#         294
  C:20ADH         LINE#         295
  C:20ADH         LINE#         296
  C:20B9H         LINE#         297
  C:20B9H         LINE#         298
  C:20C2H         LINE#         299
  C:20C2H         LINE#         300
  C:20C2H         LINE#         301
  C:20C2H         LINE#         302
  C:20C2H         LINE#         303
  C:20C2H         LINE#         304
  C:20C2H         LINE#         305
  C:20C2H         LINE#         307
  C:20C3H         LINE#         308
  C:20C4H         LINE#         309
  C:20C7H         LINE#         310
  C:20CAH         LINE#         311
  C:20CDH         LINE#         312
  C:20CEH         LINE#         313
  C:20CFH         LINE#         315
  C:20D2H         LINE#         317
  C:20D8H         LINE#         318
  -------         ENDPROC       _IAP_ERASE
  -------         PROC          _IAP_READDATA
  D:0006H         SYMBOL        u16Address
BL51 BANKED LINKER/LOCATER V6.22                                                      05/30/2019  12:42:35  PAGE 219


  D:0001H         SYMBOL        pu8Buf
  X:0A8CH         SYMBOL        u16Length
  -------         DO            
  D:0006H         SYMBOL        ptr
  D:000BH         SYMBOL        len
  -------         ENDDO         
  C:20D9H         LINE#         328
  C:20D9H         LINE#         329
  C:20D9H         LINE#         331
  C:20E3H         LINE#         333
  C:20E6H         LINE#         334
  C:20E9H         LINE#         335
  C:20ECH         LINE#         337
  C:20ECH         LINE#         339
  C:20F9H         LINE#         340
  C:20F9H         LINE#         341
  C:2102H         LINE#         342
  C:2107H         LINE#         343
  C:210EH         LINE#         344
  C:2110H         LINE#         345
  -------         ENDPROC       _IAP_READDATA
  -------         PROC          _IAP_WRITEDATA
  D:0004H         SYMBOL        u16Address
  D:0001H         SYMBOL        pu8Buf
  X:0A93H         SYMBOL        u16Length
  -------         DO            
  D:001DH         SYMBOL        BackupEA
  -------         ENDDO         
  C:2111H         LINE#         356
  C:2117H         LINE#         357
  C:2117H         LINE#         358
  C:211DH         LINE#         360
  C:211FH         LINE#         362
  C:2122H         LINE#         364
  C:2125H         LINE#         365
  C:2128H         LINE#         366
  C:212BH         LINE#         368
  C:2136H         LINE#         369
  C:2136H         LINE#         370
  C:213AH         LINE#         371
  C:213AH         LINE#         373
  C:213DH         LINE#         374
  C:2140H         LINE#         375
  C:2143H         LINE#         376
  C:2145H         LINE#         378
  C:2145H         LINE#         379
  C:2148H         LINE#         380
  C:214BH         LINE#         381
  C:214EH         LINE#         382
  C:214EH         LINE#         384
  C:2156H         LINE#         385
  C:2156H         LINE#         386
  C:215EH         LINE#         387
  C:215EH         LINE#         388
  C:2166H         LINE#         389
  C:2166H         LINE#         390
  C:216CH         LINE#         391
BL51 BANKED LINKER/LOCATER V6.22                                                      05/30/2019  12:42:35  PAGE 220


  C:216CH         LINE#         392
  C:2172H         LINE#         393
  C:2172H         LINE#         394
  C:217EH         LINE#         395
  C:217EH         LINE#         396
  C:2196H         LINE#         397
  C:2196H         LINE#         398
  C:2196H         LINE#         399
  C:2196H         LINE#         400
  C:2196H         LINE#         401
  C:2196H         LINE#         402
  C:2196H         LINE#         403
  C:2196H         LINE#         405
  C:2197H         LINE#         406
  C:2198H         LINE#         407
  C:219BH         LINE#         408
  C:219EH         LINE#         409
  C:21A1H         LINE#         410
  C:21A2H         LINE#         411
  C:21A3H         LINE#         413
  C:21A6H         LINE#         415
  C:21ACH         LINE#         416
  -------         ENDPROC       _IAP_WRITEDATA
  -------         ENDMOD        IAP

  -------         MODULE        PROPRIETARY
  C:0000H         SYMBOL        _ICE_DUMMY_
  D:0080H         PUBLIC        P0
  D:0090H         PUBLIC        P1
  D:00A0H         PUBLIC        P2
  D:00B0H         PUBLIC        P3
  C:9019H         PUBLIC        _Prop_RunRx
  C:CBFBH         PUBLIC        DisableRxWinS
  C:9C44H         PUBLIC        _Prop_RunTx
  D:00A8H         PUBLIC        IE
  C:CB4EH         PUBLIC        DisablePRTimer1
  C:9D9FH         PUBLIC        _Prop_Start
  D:00B8H         PUBLIC        IP
  C:CA9BH         PUBLIC        Prop_Initialize
  C:C918H         PUBLIC        EnablePRTimer1
  X:095FH         PUBLIC        g_TSPropParm
  C:C318H         PUBLIC        Get_Interval_Time_Left
  C:ABFCH         PUBLIC        _Prop_Stop
  D:0098H         PUBLIC        SCON
  D:0089H         PUBLIC        TMOD
  D:0088H         PUBLIC        TCON
  X:0975H         PUBLIC        PR_Timer1Flag
  X:0976H         PUBLIC        g_RxCnt
  C:C7FDH         PUBLIC        Get_Interval_Time
  C:CBEFH         PUBLIC        Prop_GetRFMode
  B:00A8H.3       PUBLIC        ET1
  D:008DH         PUBLIC        TH1
  D:008BH         PUBLIC        TL1
  D:00E8H         PUBLIC        EIE
  C:C5E7H         PUBLIC        _WriteHWFIFO
  B:0088H.6       PUBLIC        TR1
  C:BF18H         PUBLIC        _Prop_Delete
BL51 BANKED LINKER/LOCATER V6.22                                                      05/30/2019  12:42:35  PAGE 221


  C:A364H         PUBLIC        _Prop_Create
  D:00C8H         PUBLIC        T2CON
  D:008EH         PUBLIC        CKCON
  C:CAB8H         PUBLIC        Timer1PRInit
  D:00D0H         PUBLIC        PSW
  C:A65CH         SYMBOL        Com007D
  C:A65CH         SYMBOL        L?0126
  C:A674H         SYMBOL        L?0127
  C:A67AH         SYMBOL        L?0128
  C:A67AH         SYMBOL        L?0129
  C:A67EH         SYMBOL        L?0130
  C:A685H         SYMBOL        L?0131
  C:A685H         SYMBOL        L?0132
  C:A688H         SYMBOL        L?0133
  C:A692H         SYMBOL        L?0134
  C:A698H         SYMBOL        L?0135
  C:A69EH         SYMBOL        L?0136
  C:A6B6H         SYMBOL        L?0137
  C:A6B9H         SYMBOL        L?0138
  C:A6BFH         SYMBOL        L?0139
  C:A6D5H         SYMBOL        L?0140
  C:A6D5H         SYMBOL        L?0141
  C:A6DFH         SYMBOL        L?0142
  C:A6EFH         SYMBOL        L?0144
  C:A6FDH         SYMBOL        L?0145
  C:A700H         SYMBOL        L?0146
  C:A706H         SYMBOL        L?0147
  C:A70DH         SYMBOL        L?0148
  C:A717H         SYMBOL        L?0149
  C:A721H         SYMBOL        L?0150
  C:A721H         SYMBOL        L?0151
  C:A728H         SYMBOL        L?0152
  C:A732H         SYMBOL        L?0153
  C:A73CH         SYMBOL        L?0154
  -------         PROC          COM007D
  -------         ENDPROC       COM007D
  -------         PROC          _WRITEHWFIFO
  X:0B3DH         SYMBOL        pu8Data
  D:0005H         SYMBOL        u8Len
  -------         DO            
  D:0007H         SYMBOL        i
  -------         ENDDO         
  C:C5E7H         LINE#         78
  C:C5EDH         LINE#         79
  C:C5EDH         LINE#         82
  C:C5F4H         LINE#         83
  C:C5F4H         LINE#         84
  C:C60EH         LINE#         85
  C:C611H         LINE#         86
  -------         ENDPROC       _WRITEHWFIFO
  -------         PROC          L?0143
  -------         ENDPROC       L?0143
  -------         PROC          ENABLEPRTIMER1
  C:C918H         LINE#         89
  C:C918H         LINE#         90
  C:C918H         LINE#         91
  C:C91EH         LINE#         92
BL51 BANKED LINKER/LOCATER V6.22                                                      05/30/2019  12:42:35  PAGE 222


  C:C920H         LINE#         93
  C:C922H         LINE#         94
  -------         ENDPROC       ENABLEPRTIMER1
  -------         PROC          DISABLEPRTIMER1
  C:CB4EH         LINE#         97
  C:CB4EH         LINE#         98
  C:CB4EH         LINE#         99
  C:CB53H         LINE#         100
  C:CB55H         LINE#         101
  C:CB57H         LINE#         102
  -------         ENDPROC       DISABLEPRTIMER1
  -------         PROC          TIMER1PRINIT
  C:CAB8H         LINE#         105
  C:CAB8H         LINE#         106
  C:CAB8H         LINE#         107
  C:CAC0H         LINE#         108
  C:CAC3H         LINE#         110
  -------         ENDPROC       TIMER1PRINIT
  -------         PROC          PROP_INITIALIZE
  C:CA9BH         LINE#         122
  C:CA9BH         LINE#         123
  C:CA9BH         LINE#         124
  C:CAA0H         LINE#         125
  -------         ENDPROC       PROP_INITIALIZE
  -------         PROC          _PROP_CREATE
  X:0ABFH         SYMBOL        tsParam
  X:0AC2H         SYMBOL        pvHandle
  -------         DO            
  D:0007H         SYMBOL        j
  -------         ENDDO         
  C:A364H         LINE#         128
  C:A36AH         LINE#         129
  C:A36AH         LINE#         132
  C:A36CH         LINE#         133
  C:A375H         LINE#         134
  C:A375H         LINE#         135
  C:A38AH         LINE#         137
  C:A398H         LINE#         138
  C:A39BH         LINE#         140
  C:A3A4H         LINE#         141
  C:A3A7H         LINE#         142
  C:A3B9H         LINE#         144
  C:A3BCH         LINE#         145
  C:A3D5H         LINE#         147
  C:A3D8H         LINE#         148
  C:A3E0H         LINE#         149
  C:A3E3H         LINE#         151
  C:A3E3H         LINE#         152
  C:A3F3H         LINE#         154
  C:A3F9H         LINE#         155
  C:A3F9H         LINE#         156
  C:A3F9H         LINE#         158
  C:A402H         LINE#         159
  C:A405H         LINE#         161
  C:A408H         LINE#         162
  C:A40AH         LINE#         163
  C:A40EH         LINE#         164
BL51 BANKED LINKER/LOCATER V6.22                                                      05/30/2019  12:42:35  PAGE 223


  C:A40EH         LINE#         165
  C:A40EH         LINE#         166
  C:A416H         LINE#         167
  C:A419H         LINE#         171
  C:A41FH         LINE#         172
  C:A41FH         LINE#         173
  C:A424H         LINE#         174
  C:A428H         LINE#         175
  C:A428H         LINE#         177
  C:A428H         LINE#         179
  C:A428H         LINE#         181
  C:A43DH         LINE#         182
  C:A447H         LINE#         183
  C:A44DH         LINE#         184
  C:A464H         LINE#         185
  C:A467H         LINE#         186
  C:A467H         LINE#         187
  C:A467H         LINE#         188
  C:A469H         LINE#         189
  -------         ENDPROC       _PROP_CREATE
  -------         PROC          _PROP_DELETE
  X:0B40H         SYMBOL        pvHandle
  C:BF18H         LINE#         191
  C:BF1EH         LINE#         192
  C:BF1EH         LINE#         193
  C:BF40H         LINE#         194
  C:BF40H         LINE#         195
  C:BF4AH         LINE#         196
  C:BF62H         LINE#         197
  C:BF65H         LINE#         198
  C:BF65H         LINE#         199
  C:BF67H         LINE#         200
  -------         ENDPROC       _PROP_DELETE
  -------         PROC          _PROP_START
  D:0001H         SYMBOL        pvHandle
  X:0B43H         SYMBOL        u8Channel
  -------         DO            
  D:0006H         SYMBOL        tmp
  X:0B44H         SYMBOL        tmp1
  -------         ENDDO         
  C:9D9FH         LINE#         202
  C:9DA4H         LINE#         203
  C:9DA4H         LINE#         206
  C:9DBFH         LINE#         207
  C:9DBFH         LINE#         208
  C:9DC8H         LINE#         210
  C:9DCFH         LINE#         211
  C:9DD3H         LINE#         212
  C:9DD7H         LINE#         213
  C:9DD7H         LINE#         214
  C:9DE2H         LINE#         215
  C:9DE4H         LINE#         217
  C:9DE4H         LINE#         218
  C:9DE9H         LINE#         219
  C:9DF3H         LINE#         221
  C:9DFAH         LINE#         222
  C:9DFAH         LINE#         224
BL51 BANKED LINKER/LOCATER V6.22                                                      05/30/2019  12:42:35  PAGE 224


  C:9E0AH         LINE#         225
  C:9E0AH         LINE#         226
  C:9E13H         LINE#         227
  C:9E13H         LINE#         228
  C:9E1DH         LINE#         229
  C:9E26H         LINE#         231
  C:9E29H         LINE#         233
  C:9E2FH         LINE#         234
  C:9E32H         LINE#         236
  C:9E35H         LINE#         237
  C:9E3EH         LINE#         238
  C:9E4AH         LINE#         239
  C:9E4DH         LINE#         240
  C:9E56H         LINE#         241
  C:9E60H         LINE#         242
  C:9E68H         LINE#         243
  C:9E72H         LINE#         244
  C:9E7CH         LINE#         246
  C:9E84H         LINE#         247
  C:9E8CH         LINE#         248
  C:9E94H         LINE#         249
  C:9E9CH         LINE#         251
  C:9EA4H         LINE#         252
  C:9EACH         LINE#         253
  C:9EB4H         LINE#         254
  C:9EBCH         LINE#         255
  C:9EC2H         LINE#         257
  C:9EC8H         LINE#         258
  C:9ECCH         LINE#         259
  C:9ECFH         LINE#         261
  C:9ED1H         LINE#         262
  C:9ED1H         LINE#         263
  C:9ED4H         LINE#         264
  C:9ED4H         LINE#         265
  C:9ED7H         LINE#         266
  C:9ED7H         LINE#         267
  C:9ED9H         LINE#         268
  -------         ENDPROC       _PROP_START
  -------         PROC          _PROP_STOP
  D:0001H         SYMBOL        pvHandle
  C:ABFCH         LINE#         270
  C:ABFCH         LINE#         271
  C:ABFCH         LINE#         272
  C:AC17H         LINE#         273
  C:AC17H         LINE#         274
  C:AC1DH         LINE#         275
  C:AC1DH         LINE#         276
  C:AC22H         LINE#         277
  C:AC22H         LINE#         278
  C:AC25H         LINE#         279
  C:AC2DH         LINE#         280
  C:AC35H         LINE#         281
  C:AC3DH         LINE#         282
  C:AC45H         LINE#         284
  C:AC48H         LINE#         285
  C:AC4FH         LINE#         286
  C:AC57H         LINE#         287
BL51 BANKED LINKER/LOCATER V6.22                                                      05/30/2019  12:42:35  PAGE 225


  C:AC5AH         LINE#         288
  C:AC61H         LINE#         289
  C:AC69H         LINE#         290
  C:AC72H         LINE#         291
  C:AC79H         LINE#         292
  C:AC81H         LINE#         294
  C:AC87H         LINE#         296
  C:AC8CH         LINE#         297
  C:AC90H         LINE#         298
  C:AC94H         LINE#         299
  C:AC96H         LINE#         300
  C:AC96H         LINE#         301
  C:AC99H         LINE#         302
  C:AC99H         LINE#         304
  C:AC99H         LINE#         305
  C:ACA6H         LINE#         306
  C:ACA6H         LINE#         307
  C:ACAEH         LINE#         308
  C:ACB4H         LINE#         309
  C:ACB4H         LINE#         310
  C:ACB4H         LINE#         311
  C:ACB7H         LINE#         312
  C:ACB7H         LINE#         313
  C:ACB9H         LINE#         314
  -------         ENDPROC       _PROP_STOP
  -------         PROC          _PROP_RUNTX
  D:0001H         SYMBOL        pvHandle
  X:0A23H         SYMBOL        pu8TxBuf
  X:0A26H         SYMBOL        u8TxLen
  -------         DO            
  D:0006H         SYMBOL        tmp
  X:0A27H         SYMBOL        tmp1
  X:0A29H         SYMBOL        TxTimes
  -------         ENDDO         
  C:9C44H         LINE#         316
  C:9C44H         LINE#         317
  C:9C44H         LINE#         321
  C:9C5FH         LINE#         322
  C:9C5FH         LINE#         323
  C:9C70H         LINE#         324
  C:9C70H         LINE#         325
  C:9C74H         LINE#         326
  C:9C7BH         LINE#         327
  C:9C7FH         LINE#         328
  C:9C83H         LINE#         329
  C:9C83H         LINE#         330
  C:9C8AH         LINE#         331
  C:9C9AH         LINE#         332
  C:9CA0H         LINE#         333
  C:9CABH         LINE#         335
  C:9CACH         LINE#         336
  C:9CAEH         LINE#         338
  C:9CAEH         LINE#         339
  C:9CB5H         LINE#         340
  C:9CBAH         LINE#         341
  C:9CC2H         LINE#         343
  C:9CC9H         LINE#         344
BL51 BANKED LINKER/LOCATER V6.22                                                      05/30/2019  12:42:35  PAGE 226


  C:9CC9H         LINE#         346
  C:9CDAH         LINE#         347
  C:9CE3H         LINE#         348
  C:9D22H         LINE#         350
  C:9D30H         LINE#         352
  C:9D3DH         LINE#         353
  C:9D3DH         LINE#         354
  C:9D4DH         LINE#         355
  C:9D53H         LINE#         356
  C:9D59H         LINE#         357
  C:9D5CH         LINE#         358
  C:9D5FH         LINE#         360
  C:9D6DH         LINE#         361
  C:9D70H         LINE#         363
  C:9D76H         LINE#         364
  C:9D87H         LINE#         366
  C:9D8DH         LINE#         367
  C:9D93H         LINE#         369
  C:9D96H         LINE#         370
  C:9D96H         LINE#         371
  C:9D99H         LINE#         372
  C:9D99H         LINE#         373
  C:9D9CH         LINE#         374
  C:9D9CH         LINE#         375
  C:9D9EH         LINE#         376
  -------         ENDPROC       _PROP_RUNTX
  -------         PROC          _PROP_RUNRX
  D:0001H         SYMBOL        pvHandle
  X:0A07H         SYMBOL        pu8RxBuf
  X:0A0AH         SYMBOL        u8RxLen
  -------         DO            
  D:0003H         SYMBOL        flag
  X:0A0BH         SYMBOL        tmp
  X:0A0DH         SYMBOL        tmp1
  X:0A0FH         SYMBOL        RxTimes
  -------         ENDDO         
  C:9019H         LINE#         378
  C:9019H         LINE#         379
  C:9019H         LINE#         384
  C:9034H         LINE#         385
  C:9034H         LINE#         386
  C:9045H         LINE#         387
  C:9045H         LINE#         388
  C:9051H         LINE#         389
  C:9058H         LINE#         390
  C:905CH         LINE#         391
  C:9060H         LINE#         392
  C:9060H         LINE#         393
  C:9066H         LINE#         394
  C:9076H         LINE#         395
  C:907EH         LINE#         396
  C:908DH         LINE#         398
  C:908EH         LINE#         399
  C:9090H         LINE#         401
  C:9090H         LINE#         402
  C:9096H         LINE#         403
  C:90A3H         LINE#         404
BL51 BANKED LINKER/LOCATER V6.22                                                      05/30/2019  12:42:35  PAGE 227


  C:90ABH         LINE#         406
  C:90B2H         LINE#         407
  C:90B2H         LINE#         409
  C:90C3H         LINE#         410
  C:90CCH         LINE#         412
  C:90DAH         LINE#         414
  C:9108H         LINE#         415
  C:9108H         LINE#         416
  C:910AH         LINE#         417
  C:9115H         LINE#         419
  C:911BH         LINE#         420
  C:9121H         LINE#         421
  C:9124H         LINE#         422
  C:9127H         LINE#         424
  C:9130H         LINE#         425
  C:9133H         LINE#         427
  C:9139H         LINE#         429
  C:914AH         LINE#         431
  C:9150H         LINE#         432
  C:9150H         LINE#         433
  C:915DH         LINE#         434
  C:915DH         LINE#         435
  C:915FH         LINE#         436
  C:915FH         LINE#         437
  C:915FH         LINE#         438
  C:915FH         LINE#         439
  C:9162H         LINE#         441
  C:9169H         LINE#         443
  C:916CH         LINE#         444
  C:916CH         LINE#         445
  C:9173H         LINE#         446
  C:9173H         LINE#         447
  C:917CH         LINE#         448
  C:917EH         LINE#         450
  C:917EH         LINE#         451
  C:9197H         LINE#         452
  C:91BDH         LINE#         453
  C:91C4H         LINE#         454
  C:91C4H         LINE#         455
  C:91C4H         LINE#         456
  C:91CAH         LINE#         457
  C:91D1H         LINE#         458
  C:91D1H         LINE#         459
  C:91D4H         LINE#         460
  C:91D4H         LINE#         461
  C:91D7H         LINE#         462
  C:91D7H         LINE#         463
  C:91D9H         LINE#         464
  -------         ENDPROC       _PROP_RUNRX
  -------         PROC          PROP_GETRFMODE
  C:CBEFH         LINE#         467
  C:CBEFH         LINE#         468
  C:CBEFH         LINE#         469
  C:CBF4H         LINE#         470
  -------         ENDPROC       PROP_GETRFMODE
  -------         PROC          DISABLERXWINS
  C:CBFBH         LINE#         472
BL51 BANKED LINKER/LOCATER V6.22                                                      05/30/2019  12:42:35  PAGE 228


  C:CBFBH         LINE#         473
  C:CBFBH         LINE#         474
  -------         ENDPROC       DISABLERXWINS
  -------         PROC          GET_INTERVAL_TIME
  -------         DO            
  D:0006H         SYMBOL        tmp
  -------         ENDDO         
  C:C7FDH         LINE#         477
  C:C7FDH         LINE#         478
  C:C7FDH         LINE#         481
  C:C804H         LINE#         482
  C:C80AH         LINE#         483
  C:C80EH         LINE#         484
  C:C813H         LINE#         486
  C:C81BH         LINE#         487
  C:C81BH         LINE#         488
  -------         ENDPROC       GET_INTERVAL_TIME
  -------         PROC          GET_INTERVAL_TIME_LEFT
  -------         DO            
  X:0B52H         SYMBOL        tmp
  D:0006H         SYMBOL        tmp1
  -------         ENDDO         
  C:C318H         LINE#         490
  C:C318H         LINE#         491
  C:C318H         LINE#         495
  C:C31FH         LINE#         496
  C:C329H         LINE#         497
  C:C32DH         LINE#         498
  C:C332H         LINE#         500
  C:C341H         LINE#         501
  C:C345H         LINE#         502
  C:C352H         LINE#         503
  C:C352H         LINE#         504
  -------         ENDPROC       GET_INTERVAL_TIME_LEFT
  -------         ENDMOD        PROPRIETARY

  -------         MODULE        ?C?FPADD
  C:0F3EH         PUBLIC        ?C?FPADD
  C:0F3AH         PUBLIC        ?C?FPSUB
  -------         ENDMOD        ?C?FPADD

  -------         MODULE        ?C?FPMUL
  C:102FH         PUBLIC        ?C?FPMUL
  -------         ENDMOD        ?C?FPMUL

  -------         MODULE        ?C?FCAST
  C:113FH         PUBLIC        ?C?FCASTC
  C:113AH         PUBLIC        ?C?FCASTI
  C:1135H         PUBLIC        ?C?FCASTL
  -------         ENDMOD        ?C?FCAST

  -------         MODULE        ?C?CASTF
  C:1173H         PUBLIC        ?C?CASTF
  -------         ENDMOD        ?C?CASTF

  -------         MODULE        ?C?COPY
  C:12C4H         PUBLIC        ?C?COPY
BL51 BANKED LINKER/LOCATER V6.22                                                      05/30/2019  12:42:35  PAGE 229


  -------         ENDMOD        ?C?COPY

  -------         MODULE        ?C?CLDPTR
  C:12EAH         PUBLIC        ?C?CLDPTR
  -------         ENDMOD        ?C?CLDPTR

  -------         MODULE        ?C?CLDOPTR
  C:1303H         PUBLIC        ?C?CLDOPTR
  -------         ENDMOD        ?C?CLDOPTR

  -------         MODULE        ?C?CSTPTR
  C:1330H         PUBLIC        ?C?CSTPTR
  -------         ENDMOD        ?C?CSTPTR

  -------         MODULE        ?C?CSTOPTR
  C:1342H         PUBLIC        ?C?CSTOPTR
  -------         ENDMOD        ?C?CSTOPTR

  -------         MODULE        ?C?IMUL
  C:1364H         PUBLIC        ?C?IMUL
  -------         ENDMOD        ?C?IMUL

  -------         MODULE        ?C?UIDIV
  C:1376H         PUBLIC        ?C?UIDIV
  -------         ENDMOD        ?C?UIDIV

  -------         MODULE        ?C?IILDX
  C:13CBH         PUBLIC        ?C?IILDX
  -------         ENDMOD        ?C?IILDX

  -------         MODULE        ?C?ILDOPTR
  C:13E1H         PUBLIC        ?C?ILDOPTR
  -------         ENDMOD        ?C?ILDOPTR

  -------         MODULE        ?C?LADD
  C:1419H         PUBLIC        ?C?LADD
  -------         ENDMOD        ?C?LADD

  -------         MODULE        ?C?LSUB
  C:1426H         PUBLIC        ?C?LSUB
  -------         ENDMOD        ?C?LSUB

  -------         MODULE        ?C?LMUL
  C:1434H         PUBLIC        ?C?LMUL
  -------         ENDMOD        ?C?LMUL

  -------         MODULE        ?C?ULDIV
  C:14BFH         PUBLIC        ?C?ULDIV
  -------         ENDMOD        ?C?ULDIV

  -------         MODULE        ?C?LOR
  C:1551H         PUBLIC        ?C?LOR
  -------         ENDMOD        ?C?LOR

  -------         MODULE        ?C?LNEG
  C:155EH         PUBLIC        ?C?LNEG
  -------         ENDMOD        ?C?LNEG
BL51 BANKED LINKER/LOCATER V6.22                                                      05/30/2019  12:42:35  PAGE 230



  -------         MODULE        ?C?SLCMP
  C:156CH         PUBLIC        ?C?SLCMP
  -------         ENDMOD        ?C?SLCMP

  -------         MODULE        ?C?ULCMP
  C:1582H         PUBLIC        ?C?ULCMP
  -------         ENDMOD        ?C?ULCMP

  -------         MODULE        ?C?ULSHR
  C:1593H         PUBLIC        ?C?ULSHR
  -------         ENDMOD        ?C?ULSHR

  -------         MODULE        ?C?SLSHR
  C:15A6H         PUBLIC        ?C?SLSHR
  -------         ENDMOD        ?C?SLSHR

  -------         MODULE        ?C?LSHL
  C:15BAH         PUBLIC        ?C?LSHL
  -------         ENDMOD        ?C?LSHL

  -------         MODULE        ?C?LLDXDATA
  C:15CDH         PUBLIC        ?C?LLDXDATA
  -------         ENDMOD        ?C?LLDXDATA

  -------         MODULE        ?C?LLDCODE
  C:15D9H         PUBLIC        ?C?LLDCODE
  -------         ENDMOD        ?C?LLDCODE

  -------         MODULE        ?C?LLDXDATA0
  C:15E9H         PUBLIC        ?C?LLDXDATA0
  -------         ENDMOD        ?C?LLDXDATA0

  -------         MODULE        ?C?LSTXDATA
  C:15F5H         PUBLIC        ?C?LSTXDATA
  -------         ENDMOD        ?C?LSTXDATA

  -------         MODULE        ?C?LSTKXDATA
  C:1601H         PUBLIC        ?C?LSTKXDATA
  -------         ENDMOD        ?C?LSTKXDATA

  -------         MODULE        ?C?OFFXADD
  C:1632H         PUBLIC        ?C?OFFXADD
  -------         ENDMOD        ?C?OFFXADD

  -------         MODULE        ?C?PLDXDATA
  C:163EH         PUBLIC        ?C?PLDXDATA
  -------         ENDMOD        ?C?PLDXDATA

  -------         MODULE        ?C?PSTXDATA
  C:1647H         PUBLIC        ?C?PSTXDATA
  -------         ENDMOD        ?C?PSTXDATA

  -------         MODULE        ?C?PLDCODE
  C:1650H         PUBLIC        ?C?PLDCODE
  -------         ENDMOD        ?C?PLDCODE

BL51 BANKED LINKER/LOCATER V6.22                                                      05/30/2019  12:42:35  PAGE 231


  -------         MODULE        ?C?PLDPTR
  C:165CH         PUBLIC        ?C?PLDPTR
  -------         ENDMOD        ?C?PLDPTR

  -------         MODULE        ?C?PSTPTR
  C:167CH         PUBLIC        ?C?PSTPTR
  -------         ENDMOD        ?C?PSTPTR

  -------         MODULE        ?C?CCASE
  C:16CBH         PUBLIC        ?C?CCASE
  -------         ENDMOD        ?C?CCASE

  -------         MODULE        ?C?LIMUL
  C:16F1H         PUBLIC        ?C?LIMUL
  -------         ENDMOD        ?C?LIMUL

  -------         MODULE        ?C?MEMCMP
  C:18A4H         PUBLIC        ?C?MEMCMP
  -------         ENDMOD        ?C?MEMCMP

  -------         MODULE        ?C?MEMSET
  C:18C8H         PUBLIC        ?C?MEMSET
  -------         ENDMOD        ?C?MEMSET

  -------         MODULE        ?C?PLDIDATA
  C:18F4H         PUBLIC        ?C?PLDIDATA
  -------         ENDMOD        ?C?PLDIDATA

  -------         MODULE        ?C?PSTIDATA
  C:18FDH         PUBLIC        ?C?PSTIDATA
  -------         ENDMOD        ?C?PSTIDATA

  -------         MODULE        ?C?PLDPDATA
  C:1906H         PUBLIC        ?C?PLDPDATA
  -------         ENDMOD        ?C?PLDPDATA

  -------         MODULE        ?C?PSTPDATA
  C:190FH         PUBLIC        ?C?PSTPDATA
  -------         ENDMOD        ?C?PSTPDATA

Program Size: data=48.6 xdata=2978 code=51981
LINK/LOCATE RUN COMPLETE.  0 WARNING(S),  0 ERROR(S)
